

Microchip MPLAB XC8 Assembler V3.00 build 20241204225717 
                                                                                               Thu Jan 16 21:01:05 2025

Microchip MPLAB XC8 C Compiler v3.00 (Free license) build 20241204225717 Og1 
     1                           	processor	18F4580
     2                           	fnconf	rparam,??,?,0
     3                           	pagewidth 120
     4                           	opt	flic
     5                           	psect	idataBANK0,global,class=CODE,space=0,delta=1,noexec
     6                           	psect	mediumconst,global,reloc=2,class=MEDIUMCONST,space=0,delta=1,noexec
     7                           	psect	cinit,global,reloc=2,class=CODE,space=0,delta=1
     8                           	psect	bssCOMRAM,global,class=COMRAM,space=1,delta=1,lowdata,noexec
     9                           	psect	bssBANK0,global,class=BANK0,space=1,delta=1,lowdata,noexec
    10                           	psect	dataBANK0,global,class=BANK0,space=1,delta=1,lowdata,noexec
    11                           	psect	cstackBANK0,global,class=BANK0,space=1,delta=1,lowdata,noexec
    12                           	psect	cstackCOMRAM,global,class=COMRAM,space=1,delta=1,lowdata,noexec
    13                           	psect	text0,global,reloc=2,class=CODE,space=0,delta=1
    14                           	psect	text1,global,reloc=2,class=CODE,space=0,delta=1
    15                           	psect	text2,global,reloc=2,class=CODE,space=0,delta=1
    16                           	psect	text3,global,reloc=2,class=CODE,space=0,delta=1
    17                           	psect	text4,global,reloc=2,class=CODE,space=0,delta=1
    18                           	psect	text5,global,reloc=2,class=CODE,space=0,delta=1
    19                           	psect	text6,global,reloc=2,class=CODE,space=0,delta=1
    20                           	psect	text7,global,reloc=2,class=CODE,space=0,delta=1
    21                           	psect	text8,global,reloc=2,class=CODE,space=0,delta=1,group=2
    22                           	psect	text9,global,reloc=2,class=CODE,space=0,delta=1
    23                           	psect	text10,global,reloc=2,class=CODE,space=0,delta=1,group=2
    24                           	psect	text11,global,reloc=2,class=CODE,space=0,delta=1
    25                           	psect	text12,global,reloc=2,class=CODE,space=0,delta=1
    26                           	psect	text13,global,reloc=2,class=CODE,space=0,delta=1
    27                           	psect	text14,global,reloc=2,class=CODE,space=0,delta=1,group=2
    28                           	psect	text15,global,reloc=2,class=CODE,space=0,delta=1,group=2
    29                           	psect	text16,global,reloc=2,class=CODE,space=0,delta=1,group=2
    30                           	psect	text17,global,reloc=2,class=CODE,space=0,delta=1,group=2
    31                           	psect	text18,global,reloc=2,class=CODE,space=0,delta=1,group=2
    32                           	psect	text19,global,reloc=2,class=CODE,space=0,delta=1,group=2
    33                           	psect	text20,global,reloc=2,class=CODE,space=0,delta=1,group=2
    34                           	psect	intcode,global,reloc=2,class=CODE,space=0,delta=1
    35                           	psect	intcode_body,global,reloc=2,class=CODE,space=0,delta=1
    36                           	psect	text22,global,reloc=2,class=CODE,space=0,delta=1
    37                           	psect	text23,global,reloc=2,class=CODE,space=0,delta=1
    38                           	psect	text24,global,reloc=2,class=CODE,space=0,delta=1,group=3
    39                           	psect	text25,global,reloc=2,class=CODE,space=0,delta=1,group=3
    40                           	psect	text26,global,reloc=2,class=CODE,space=0,delta=1,group=1
    41                           	psect	text27,global,reloc=2,class=CODE,space=0,delta=1,group=1
    42                           	psect	text28,global,reloc=2,class=CODE,space=0,delta=1
    43                           	psect	text29,global,reloc=2,class=CODE,space=0,delta=1
    44                           	psect	text30,global,reloc=2,class=CODE,space=0,delta=1,group=3
    45                           	psect	text31,global,reloc=2,class=CODE,space=0,delta=1,group=3
    46                           	psect	text32,global,reloc=2,class=CODE,space=0,delta=1,group=3
    47                           	psect	text33,global,reloc=2,class=CODE,space=0,delta=1
    48                           	psect	text34,global,reloc=2,class=CODE,space=0,delta=1,group=3
    49                           	psect	intsave_regs,global,class=BIGRAM,space=1,delta=1,noexec
    50                           	psect	rparam,global,class=COMRAM,space=1,delta=1,noexec
    51                           	psect	temp,global,ovrld,common,class=COMRAM,space=1,delta=1,lowdata
    52                           	psect	config,global,abs,ovrld,class=CONFIG,space=4,delta=1,noexec
    53   000000                     
    54                           ; Generated 17/10/2023 GMT
    55                           ; 
    56                           ; Copyright © 2023, Microchip Technology Inc. and its subsidiaries ("Microchip")
    57                           ; All rights reserved.
    58                           ; 
    59                           ; This software is developed by Microchip Technology Inc. and its subsidiaries ("Microch
      +                          ip").
    60                           ; 
    61                           ; Redistribution and use in source and binary forms, with or without modification, are
    62                           ; permitted provided that the following conditions are met:
    63                           ; 
    64                           ;     1. Redistributions of source code must retain the above copyright notice, this lis
      +                          t of
    65                           ;        conditions and the following disclaimer.
    66                           ; 
    67                           ;     2. Redistributions in binary form must reproduce the above copyright notice, this 
      +                          list
    68                           ;        of conditions and the following disclaimer in the documentation and/or other
    69                           ;        materials provided with the distribution. Publication is not required when
    70                           ;        this file is used in an embedded application.
    71                           ; 
    72                           ;     3. Microchip's name may not be used to endorse or promote products derived from th
      +                          is
    73                           ;        software without specific prior written permission.
    74                           ; 
    75                           ; THIS SOFTWARE IS PROVIDED BY MICROCHIP "AS IS" AND ANY EXPRESS OR IMPLIED WARRANTIES,
    76                           ; INCLUDING, BUT NOT LIMITED TO, THE IMPLIED WARRANTIES OF MERCHANTABILITY AND FITNESS F
      +                          OR
    77                           ; PURPOSE ARE DISCLAIMED.  IN NO EVENT SHALL MICROCHIP BE LIABLE FOR ANY DIRECT, INDIREC
      +                          T,
    78                           ; INCIDENTAL, SPECIAL, EXEMPLARY, OR CONSEQUENTIAL DAMAGES (INCLUDING BUT NOT LIMITED TO
    79                           ; PROCUREMENT OF SUBSTITUTE GOODS OR SERVICES; LOSS OF USE, DATA OR PROFITS; OR BUSINESS
    80                           ; INTERRUPTION) HOWSOEVER CAUSED AND ON ANY THEORY OF LIABILITY, WHETHER IN CONTRACT, ST
      +                          RICT
    81                           ; LIABILITY, OR TORT (INCLUDING NEGLIGENCE OR OTHERWISE) ARISING IN ANY WAY OUT OF THE U
      +                          SE OF
    82                           ; THIS SOFTWARE, EVEN IF ADVISED OF THE POSSIBILITY OF SUCH DAMAGE.
    83                           ; 
    84                           ; 
    85                           ; Code-generator required, PIC18F4580 Definitions
    86                           ; 
    87                           ; SFR Addresses
    88   000FE0                     bsr             equ	4064
    89   000FE9                     fsr0            equ	4073
    90   000FEA                     fsr0h           equ	4074
    91   000FE9                     fsr0l           equ	4073
    92   000FE1                     fsr1            equ	4065
    93   000FE2                     fsr1h           equ	4066
    94   000FE1                     fsr1l           equ	4065
    95   000FD9                     fsr2            equ	4057
    96   000FDA                     fsr2h           equ	4058
    97   000FD9                     fsr2l           equ	4057
    98   000FEF                     indf0           equ	4079
    99   000FE7                     indf1           equ	4071
   100   000FDF                     indf2           equ	4063
   101   000FF2                     intcon          equ	4082
   102   000000                     nvmcon          equ	0
   103   000FF9                     pcl             equ	4089
   104   000FFA                     pclath          equ	4090
   105   000FFB                     pclatu          equ	4091
   106   000FEB                     plusw0          equ	4075
   107   000FE3                     plusw1          equ	4067
   108   000FDB                     plusw2          equ	4059
   109   000FED                     postdec0        equ	4077
   110   000FE5                     postdec1        equ	4069
   111   000FDD                     postdec2        equ	4061
   112   000FEE                     postinc0        equ	4078
   113   000FE6                     postinc1        equ	4070
   114   000FDE                     postinc2        equ	4062
   115   000FEC                     preinc0         equ	4076
   116   000FE4                     preinc1         equ	4068
   117   000FDC                     preinc2         equ	4060
   118   000FF3                     prod            equ	4083
   119   000FF4                     prodh           equ	4084
   120   000FF3                     prodl           equ	4083
   121   000FD8                     status          equ	4056
   122   000FF5                     tablat          equ	4085
   123   000FF6                     tblptr          equ	4086
   124   000FF7                     tblptrh         equ	4087
   125   000FF6                     tblptrl         equ	4086
   126   000FF8                     tblptru         equ	4088
   127   000FFD                     tosl            equ	4093
   128   000FE8                     wreg            equ	4072
   129   000D60                     RXF6SIDH        equ	3424	;# 
   130   000D61                     RXF6SIDL        equ	3425	;# 
   131   000D62                     RXF6EIDH        equ	3426	;# 
   132   000D63                     RXF6EIDL        equ	3427	;# 
   133   000D64                     RXF7SIDH        equ	3428	;# 
   134   000D65                     RXF7SIDL        equ	3429	;# 
   135   000D66                     RXF7EIDH        equ	3430	;# 
   136   000D67                     RXF7EIDL        equ	3431	;# 
   137   000D68                     RXF8SIDH        equ	3432	;# 
   138   000D69                     RXF8SIDL        equ	3433	;# 
   139   000D6A                     RXF8EIDH        equ	3434	;# 
   140   000D6B                     RXF8EIDL        equ	3435	;# 
   141   000D70                     RXF9SIDH        equ	3440	;# 
   142   000D71                     RXF9SIDL        equ	3441	;# 
   143   000D72                     RXF9EIDH        equ	3442	;# 
   144   000D73                     RXF9EIDL        equ	3443	;# 
   145   000D74                     RXF10SIDH       equ	3444	;# 
   146   000D75                     RXF10SIDL       equ	3445	;# 
   147   000D76                     RXF10EIDH       equ	3446	;# 
   148   000D77                     RXF10EIDL       equ	3447	;# 
   149   000D78                     RXF11SIDH       equ	3448	;# 
   150   000D79                     RXF11SIDL       equ	3449	;# 
   151   000D7A                     RXF11EIDH       equ	3450	;# 
   152   000D7B                     RXF11EIDL       equ	3451	;# 
   153   000D80                     RXF12SIDH       equ	3456	;# 
   154   000D81                     RXF12SIDL       equ	3457	;# 
   155   000D82                     RXF12EIDH       equ	3458	;# 
   156   000D83                     RXF12EIDL       equ	3459	;# 
   157   000D84                     RXF13SIDH       equ	3460	;# 
   158   000D85                     RXF13SIDL       equ	3461	;# 
   159   000D86                     RXF13EIDH       equ	3462	;# 
   160   000D87                     RXF13EIDL       equ	3463	;# 
   161   000D88                     RXF14SIDH       equ	3464	;# 
   162   000D89                     RXF14SIDL       equ	3465	;# 
   163   000D8A                     RXF14EIDH       equ	3466	;# 
   164   000D8B                     RXF14EIDL       equ	3467	;# 
   165   000D90                     RXF15SIDH       equ	3472	;# 
   166   000D91                     RXF15SIDL       equ	3473	;# 
   167   000D92                     RXF15EIDH       equ	3474	;# 
   168   000D93                     RXF15EIDL       equ	3475	;# 
   169   000DD4                     RXFCON0         equ	3540	;# 
   170   000DD5                     RXFCON1         equ	3541	;# 
   171   000DD8                     SDFLC           equ	3544	;# 
   172   000DE0                     RXFBCON0        equ	3552	;# 
   173   000DE1                     RXFBCON1        equ	3553	;# 
   174   000DE2                     RXFBCON2        equ	3554	;# 
   175   000DE3                     RXFBCON3        equ	3555	;# 
   176   000DE4                     RXFBCON4        equ	3556	;# 
   177   000DE5                     RXFBCON5        equ	3557	;# 
   178   000DE6                     RXFBCON6        equ	3558	;# 
   179   000DE7                     RXFBCON7        equ	3559	;# 
   180   000DF0                     MSEL0           equ	3568	;# 
   181   000DF1                     MSEL1           equ	3569	;# 
   182   000DF2                     MSEL2           equ	3570	;# 
   183   000DF3                     MSEL3           equ	3571	;# 
   184   000DF8                     BSEL0           equ	3576	;# 
   185   000DFA                     BIE0            equ	3578	;# 
   186   000DFC                     TXBIE           equ	3580	;# 
   187   000E20                     B0CON           equ	3616	;# 
   188   000E21                     B0SIDH          equ	3617	;# 
   189   000E22                     B0SIDL          equ	3618	;# 
   190   000E23                     B0EIDH          equ	3619	;# 
   191   000E24                     B0EIDL          equ	3620	;# 
   192   000E25                     B0DLC           equ	3621	;# 
   193   000E26                     B0D0            equ	3622	;# 
   194   000E27                     B0D1            equ	3623	;# 
   195   000E28                     B0D2            equ	3624	;# 
   196   000E29                     B0D3            equ	3625	;# 
   197   000E2A                     B0D4            equ	3626	;# 
   198   000E2B                     B0D5            equ	3627	;# 
   199   000E2C                     B0D6            equ	3628	;# 
   200   000E2D                     B0D7            equ	3629	;# 
   201   000E2E                     CANSTAT_RO9     equ	3630	;# 
   202   000E2F                     CANCON_RO9      equ	3631	;# 
   203   000E30                     B1CON           equ	3632	;# 
   204   000E31                     B1SIDH          equ	3633	;# 
   205   000E32                     B1SIDL          equ	3634	;# 
   206   000E33                     B1EIDH          equ	3635	;# 
   207   000E34                     B1EIDL          equ	3636	;# 
   208   000E35                     B1DLC           equ	3637	;# 
   209   000E36                     B1D0            equ	3638	;# 
   210   000E37                     B1D1            equ	3639	;# 
   211   000E38                     B1D2            equ	3640	;# 
   212   000E39                     B1D3            equ	3641	;# 
   213   000E3A                     B1D4            equ	3642	;# 
   214   000E3B                     B1D5            equ	3643	;# 
   215   000E3C                     B1D6            equ	3644	;# 
   216   000E3D                     B1D7            equ	3645	;# 
   217   000E3E                     CANSTAT_RO8     equ	3646	;# 
   218   000E3F                     CANCON_RO8      equ	3647	;# 
   219   000E40                     B2CON           equ	3648	;# 
   220   000E41                     B2SIDH          equ	3649	;# 
   221   000E42                     B2SIDL          equ	3650	;# 
   222   000E43                     B2EIDH          equ	3651	;# 
   223   000E44                     B2EIDL          equ	3652	;# 
   224   000E45                     B2DLC           equ	3653	;# 
   225   000E46                     B2D0            equ	3654	;# 
   226   000E47                     B2D1            equ	3655	;# 
   227   000E48                     B2D2            equ	3656	;# 
   228   000E49                     B2D3            equ	3657	;# 
   229   000E4A                     B2D4            equ	3658	;# 
   230   000E4B                     B2D5            equ	3659	;# 
   231   000E4C                     B2D6            equ	3660	;# 
   232   000E4D                     B2D7            equ	3661	;# 
   233   000E4E                     CANSTAT_RO7     equ	3662	;# 
   234   000E4F                     CANCON_RO7      equ	3663	;# 
   235   000E50                     B3CON           equ	3664	;# 
   236   000E51                     B3SIDH          equ	3665	;# 
   237   000E52                     B3SIDL          equ	3666	;# 
   238   000E53                     B3EIDH          equ	3667	;# 
   239   000E54                     B3EIDL          equ	3668	;# 
   240   000E55                     B3DLC           equ	3669	;# 
   241   000E56                     B3D0            equ	3670	;# 
   242   000E57                     B3D1            equ	3671	;# 
   243   000E58                     B3D2            equ	3672	;# 
   244   000E59                     B3D3            equ	3673	;# 
   245   000E5A                     B3D4            equ	3674	;# 
   246   000E5B                     B3D5            equ	3675	;# 
   247   000E5C                     B3D6            equ	3676	;# 
   248   000E5D                     B3D7            equ	3677	;# 
   249   000E5E                     CANSTAT_RO6     equ	3678	;# 
   250   000E5F                     CANCON_RO6      equ	3679	;# 
   251   000E60                     B4CON           equ	3680	;# 
   252   000E61                     B4SIDH          equ	3681	;# 
   253   000E62                     B4SIDL          equ	3682	;# 
   254   000E63                     B4EIDH          equ	3683	;# 
   255   000E64                     B4EIDL          equ	3684	;# 
   256   000E65                     B4DLC           equ	3685	;# 
   257   000E66                     B4D0            equ	3686	;# 
   258   000E67                     B4D1            equ	3687	;# 
   259   000E68                     B4D2            equ	3688	;# 
   260   000E69                     B4D3            equ	3689	;# 
   261   000E6A                     B4D4            equ	3690	;# 
   262   000E6B                     B4D5            equ	3691	;# 
   263   000E6C                     B4D6            equ	3692	;# 
   264   000E6D                     B4D7            equ	3693	;# 
   265   000E6E                     CANSTAT_RO5     equ	3694	;# 
   266   000E6F                     CANCON_RO5      equ	3695	;# 
   267   000E70                     B5CON           equ	3696	;# 
   268   000E71                     B5SIDH          equ	3697	;# 
   269   000E72                     B5SIDL          equ	3698	;# 
   270   000E73                     B5EIDH          equ	3699	;# 
   271   000E74                     B5EIDL          equ	3700	;# 
   272   000E75                     B5DLC           equ	3701	;# 
   273   000E76                     B5D0            equ	3702	;# 
   274   000E77                     B5D1            equ	3703	;# 
   275   000E78                     B5D2            equ	3704	;# 
   276   000E79                     B5D3            equ	3705	;# 
   277   000E7A                     B5D4            equ	3706	;# 
   278   000E7B                     B5D5            equ	3707	;# 
   279   000E7C                     B5D6            equ	3708	;# 
   280   000E7D                     B5D7            equ	3709	;# 
   281   000E7E                     CANSTAT_RO4     equ	3710	;# 
   282   000E7F                     CANCON_RO4      equ	3711	;# 
   283   000F00                     RXF0SIDH        equ	3840	;# 
   284   000F01                     RXF0SIDL        equ	3841	;# 
   285   000F02                     RXF0EIDH        equ	3842	;# 
   286   000F03                     RXF0EIDL        equ	3843	;# 
   287   000F04                     RXF1SIDH        equ	3844	;# 
   288   000F05                     RXF1SIDL        equ	3845	;# 
   289   000F06                     RXF1EIDH        equ	3846	;# 
   290   000F07                     RXF1EIDL        equ	3847	;# 
   291   000F08                     RXF2SIDH        equ	3848	;# 
   292   000F09                     RXF2SIDL        equ	3849	;# 
   293   000F0A                     RXF2EIDH        equ	3850	;# 
   294   000F0B                     RXF2EIDL        equ	3851	;# 
   295   000F0C                     RXF3SIDH        equ	3852	;# 
   296   000F0D                     RXF3SIDL        equ	3853	;# 
   297   000F0E                     RXF3EIDH        equ	3854	;# 
   298   000F0F                     RXF3EIDL        equ	3855	;# 
   299   000F10                     RXF4SIDH        equ	3856	;# 
   300   000F11                     RXF4SIDL        equ	3857	;# 
   301   000F12                     RXF4EIDH        equ	3858	;# 
   302   000F13                     RXF4EIDL        equ	3859	;# 
   303   000F14                     RXF5SIDH        equ	3860	;# 
   304   000F15                     RXF5SIDL        equ	3861	;# 
   305   000F16                     RXF5EIDH        equ	3862	;# 
   306   000F17                     RXF5EIDL        equ	3863	;# 
   307   000F18                     RXM0SIDH        equ	3864	;# 
   308   000F19                     RXM0SIDL        equ	3865	;# 
   309   000F1A                     RXM0EIDH        equ	3866	;# 
   310   000F1B                     RXM0EIDL        equ	3867	;# 
   311   000F1C                     RXM1SIDH        equ	3868	;# 
   312   000F1D                     RXM1SIDL        equ	3869	;# 
   313   000F1E                     RXM1EIDH        equ	3870	;# 
   314   000F1F                     RXM1EIDL        equ	3871	;# 
   315   000F20                     TXB2CON         equ	3872	;# 
   316   000F21                     TXB2SIDH        equ	3873	;# 
   317   000F22                     TXB2SIDL        equ	3874	;# 
   318   000F23                     TXB2EIDH        equ	3875	;# 
   319   000F24                     TXB2EIDL        equ	3876	;# 
   320   000F25                     TXB2DLC         equ	3877	;# 
   321   000F26                     TXB2D0          equ	3878	;# 
   322   000F27                     TXB2D1          equ	3879	;# 
   323   000F28                     TXB2D2          equ	3880	;# 
   324   000F29                     TXB2D3          equ	3881	;# 
   325   000F2A                     TXB2D4          equ	3882	;# 
   326   000F2B                     TXB2D5          equ	3883	;# 
   327   000F2C                     TXB2D6          equ	3884	;# 
   328   000F2D                     TXB2D7          equ	3885	;# 
   329   000F2E                     CANSTAT_RO3     equ	3886	;# 
   330   000F2F                     CANCON_RO3      equ	3887	;# 
   331   000F30                     TXB1CON         equ	3888	;# 
   332   000F31                     TXB1SIDH        equ	3889	;# 
   333   000F32                     TXB1SIDL        equ	3890	;# 
   334   000F33                     TXB1EIDH        equ	3891	;# 
   335   000F34                     TXB1EIDL        equ	3892	;# 
   336   000F35                     TXB1DLC         equ	3893	;# 
   337   000F36                     TXB1D0          equ	3894	;# 
   338   000F37                     TXB1D1          equ	3895	;# 
   339   000F38                     TXB1D2          equ	3896	;# 
   340   000F39                     TXB1D3          equ	3897	;# 
   341   000F3A                     TXB1D4          equ	3898	;# 
   342   000F3B                     TXB1D5          equ	3899	;# 
   343   000F3C                     TXB1D6          equ	3900	;# 
   344   000F3D                     TXB1D7          equ	3901	;# 
   345   000F3E                     CANSTAT_RO2     equ	3902	;# 
   346   000F3F                     CANCON_RO2      equ	3903	;# 
   347   000F40                     TXB0CON         equ	3904	;# 
   348   000F41                     TXB0SIDH        equ	3905	;# 
   349   000F42                     TXB0SIDL        equ	3906	;# 
   350   000F43                     TXB0EIDH        equ	3907	;# 
   351   000F44                     TXB0EIDL        equ	3908	;# 
   352   000F45                     TXB0DLC         equ	3909	;# 
   353   000F46                     TXB0D0          equ	3910	;# 
   354   000F47                     TXB0D1          equ	3911	;# 
   355   000F48                     TXB0D2          equ	3912	;# 
   356   000F49                     TXB0D3          equ	3913	;# 
   357   000F4A                     TXB0D4          equ	3914	;# 
   358   000F4B                     TXB0D5          equ	3915	;# 
   359   000F4C                     TXB0D6          equ	3916	;# 
   360   000F4D                     TXB0D7          equ	3917	;# 
   361   000F4E                     CANSTAT_RO1     equ	3918	;# 
   362   000F4F                     CANCON_RO1      equ	3919	;# 
   363   000F50                     RXB1CON         equ	3920	;# 
   364   000F51                     RXB1SIDH        equ	3921	;# 
   365   000F52                     RXB1SIDL        equ	3922	;# 
   366   000F53                     RXB1EIDH        equ	3923	;# 
   367   000F54                     RXB1EIDL        equ	3924	;# 
   368   000F55                     RXB1DLC         equ	3925	;# 
   369   000F56                     RXB1D0          equ	3926	;# 
   370   000F57                     RXB1D1          equ	3927	;# 
   371   000F58                     RXB1D2          equ	3928	;# 
   372   000F59                     RXB1D3          equ	3929	;# 
   373   000F5A                     RXB1D4          equ	3930	;# 
   374   000F5B                     RXB1D5          equ	3931	;# 
   375   000F5C                     RXB1D6          equ	3932	;# 
   376   000F5D                     RXB1D7          equ	3933	;# 
   377   000F5E                     CANSTAT_RO0     equ	3934	;# 
   378   000F5F                     CANCON_RO0      equ	3935	;# 
   379   000F60                     RXB0CON         equ	3936	;# 
   380   000F61                     RXB0SIDH        equ	3937	;# 
   381   000F62                     RXB0SIDL        equ	3938	;# 
   382   000F63                     RXB0EIDH        equ	3939	;# 
   383   000F64                     RXB0EIDL        equ	3940	;# 
   384   000F65                     RXB0DLC         equ	3941	;# 
   385   000F66                     RXB0D0          equ	3942	;# 
   386   000F67                     RXB0D1          equ	3943	;# 
   387   000F68                     RXB0D2          equ	3944	;# 
   388   000F69                     RXB0D3          equ	3945	;# 
   389   000F6A                     RXB0D4          equ	3946	;# 
   390   000F6B                     RXB0D5          equ	3947	;# 
   391   000F6C                     RXB0D6          equ	3948	;# 
   392   000F6D                     RXB0D7          equ	3949	;# 
   393   000F6E                     CANSTAT         equ	3950	;# 
   394   000F6F                     CANCON          equ	3951	;# 
   395   000F70                     BRGCON1         equ	3952	;# 
   396   000F71                     BRGCON2         equ	3953	;# 
   397   000F72                     BRGCON3         equ	3954	;# 
   398   000F73                     CIOCON          equ	3955	;# 
   399   000F74                     COMSTAT         equ	3956	;# 
   400   000F75                     RXERRCNT        equ	3957	;# 
   401   000F76                     TXERRCNT        equ	3958	;# 
   402   000F77                     ECANCON         equ	3959	;# 
   403   000F80                     PORTA           equ	3968	;# 
   404   000F81                     PORTB           equ	3969	;# 
   405   000F82                     PORTC           equ	3970	;# 
   406   000F83                     PORTD           equ	3971	;# 
   407   000F84                     PORTE           equ	3972	;# 
   408   000F89                     LATA            equ	3977	;# 
   409   000F8A                     LATB            equ	3978	;# 
   410   000F8B                     LATC            equ	3979	;# 
   411   000F8C                     LATD            equ	3980	;# 
   412   000F8D                     LATE            equ	3981	;# 
   413   000F92                     TRISA           equ	3986	;# 
   414   000F92                     DDRA            equ	3986	;# 
   415   000F93                     TRISB           equ	3987	;# 
   416   000F93                     DDRB            equ	3987	;# 
   417   000F94                     TRISC           equ	3988	;# 
   418   000F94                     DDRC            equ	3988	;# 
   419   000F95                     TRISD           equ	3989	;# 
   420   000F95                     DDRD            equ	3989	;# 
   421   000F96                     TRISE           equ	3990	;# 
   422   000F96                     DDRE            equ	3990	;# 
   423   000F9B                     OSCTUNE         equ	3995	;# 
   424   000F9D                     PIE1            equ	3997	;# 
   425   000F9E                     PIR1            equ	3998	;# 
   426   000F9F                     IPR1            equ	3999	;# 
   427   000FA0                     PIE2            equ	4000	;# 
   428   000FA1                     PIR2            equ	4001	;# 
   429   000FA2                     IPR2            equ	4002	;# 
   430   000FA3                     PIE3            equ	4003	;# 
   431   000FA4                     PIR3            equ	4004	;# 
   432   000FA5                     IPR3            equ	4005	;# 
   433   000FA6                     EECON1          equ	4006	;# 
   434   000FA7                     EECON2          equ	4007	;# 
   435   000FA8                     EEDATA          equ	4008	;# 
   436   000FA9                     EEADR           equ	4009	;# 
   437   000FAB                     RCSTA           equ	4011	;# 
   438   000FAB                     RCSTA1          equ	4011	;# 
   439   000FAC                     TXSTA           equ	4012	;# 
   440   000FAC                     TXSTA1          equ	4012	;# 
   441   000FAD                     TXREG           equ	4013	;# 
   442   000FAD                     TXREG1          equ	4013	;# 
   443   000FAE                     RCREG           equ	4014	;# 
   444   000FAE                     RCREG1          equ	4014	;# 
   445   000FAF                     SPBRG           equ	4015	;# 
   446   000FAF                     SPBRG1          equ	4015	;# 
   447   000FB0                     SPBRGH          equ	4016	;# 
   448   000FB1                     T3CON           equ	4017	;# 
   449   000FB2                     TMR3            equ	4018	;# 
   450   000FB2                     TMR3L           equ	4018	;# 
   451   000FB3                     TMR3H           equ	4019	;# 
   452   000FB4                     CMCON           equ	4020	;# 
   453   000FB5                     CVRCON          equ	4021	;# 
   454   000FB6                     ECCP1AS         equ	4022	;# 
   455   000FB7                     ECCP1DEL        equ	4023	;# 
   456   000FB8                     BAUDCON         equ	4024	;# 
   457   000FB8                     BAUDCTL         equ	4024	;# 
   458   000FBA                     ECCP1CON        equ	4026	;# 
   459   000FBB                     ECCPR1          equ	4027	;# 
   460   000FBB                     ECCPR1L         equ	4027	;# 
   461   000FBC                     ECCPR1H         equ	4028	;# 
   462   000FBD                     CCP1CON         equ	4029	;# 
   463   000FBE                     CCPR1           equ	4030	;# 
   464   000FBE                     CCPR1L          equ	4030	;# 
   465   000FBF                     CCPR1H          equ	4031	;# 
   466   000FC0                     ADCON2          equ	4032	;# 
   467   000FC1                     ADCON1          equ	4033	;# 
   468   000FC2                     ADCON0          equ	4034	;# 
   469   000FC3                     ADRES           equ	4035	;# 
   470   000FC3                     ADRESL          equ	4035	;# 
   471   000FC4                     ADRESH          equ	4036	;# 
   472   000FC5                     SSPCON2         equ	4037	;# 
   473   000FC6                     SSPCON1         equ	4038	;# 
   474   000FC7                     SSPSTAT         equ	4039	;# 
   475   000FC8                     SSPADD          equ	4040	;# 
   476   000FC9                     SSPBUF          equ	4041	;# 
   477   000FCA                     T2CON           equ	4042	;# 
   478   000FCB                     PR2             equ	4043	;# 
   479   000FCB                     MEMCON          equ	4043	;# 
   480   000FCC                     TMR2            equ	4044	;# 
   481   000FCD                     T1CON           equ	4045	;# 
   482   000FCE                     TMR1            equ	4046	;# 
   483   000FCE                     TMR1L           equ	4046	;# 
   484   000FCF                     TMR1H           equ	4047	;# 
   485   000FD0                     RCON            equ	4048	;# 
   486   000FD1                     WDTCON          equ	4049	;# 
   487   000FD2                     HLVDCON         equ	4050	;# 
   488   000FD2                     LVDCON          equ	4050	;# 
   489   000FD3                     OSCCON          equ	4051	;# 
   490   000FD5                     T0CON           equ	4053	;# 
   491   000FD6                     TMR0            equ	4054	;# 
   492   000FD6                     TMR0L           equ	4054	;# 
   493   000FD7                     TMR0H           equ	4055	;# 
   494   000FD8                     STATUS          equ	4056	;# 
   495   000FD9                     FSR2            equ	4057	;# 
   496   000FD9                     FSR2L           equ	4057	;# 
   497   000FDA                     FSR2H           equ	4058	;# 
   498   000FDB                     PLUSW2          equ	4059	;# 
   499   000FDC                     PREINC2         equ	4060	;# 
   500   000FDD                     POSTDEC2        equ	4061	;# 
   501   000FDE                     POSTINC2        equ	4062	;# 
   502   000FDF                     INDF2           equ	4063	;# 
   503   000FE0                     BSR             equ	4064	;# 
   504   000FE1                     FSR1            equ	4065	;# 
   505   000FE1                     FSR1L           equ	4065	;# 
   506   000FE2                     FSR1H           equ	4066	;# 
   507   000FE3                     PLUSW1          equ	4067	;# 
   508   000FE4                     PREINC1         equ	4068	;# 
   509   000FE5                     POSTDEC1        equ	4069	;# 
   510   000FE6                     POSTINC1        equ	4070	;# 
   511   000FE7                     INDF1           equ	4071	;# 
   512   000FE8                     WREG            equ	4072	;# 
   513   000FE9                     FSR0            equ	4073	;# 
   514   000FE9                     FSR0L           equ	4073	;# 
   515   000FEA                     FSR0H           equ	4074	;# 
   516   000FEB                     PLUSW0          equ	4075	;# 
   517   000FEC                     PREINC0         equ	4076	;# 
   518   000FED                     POSTDEC0        equ	4077	;# 
   519   000FEE                     POSTINC0        equ	4078	;# 
   520   000FEF                     INDF0           equ	4079	;# 
   521   000FF0                     INTCON3         equ	4080	;# 
   522   000FF1                     INTCON2         equ	4081	;# 
   523   000FF2                     INTCON          equ	4082	;# 
   524   000FF3                     PROD            equ	4083	;# 
   525   000FF3                     PRODL           equ	4083	;# 
   526   000FF4                     PRODH           equ	4084	;# 
   527   000FF5                     TABLAT          equ	4085	;# 
   528   000FF6                     TBLPTR          equ	4086	;# 
   529   000FF6                     TBLPTRL         equ	4086	;# 
   530   000FF7                     TBLPTRH         equ	4087	;# 
   531   000FF8                     TBLPTRU         equ	4088	;# 
   532   000FF9                     PCLAT           equ	4089	;# 
   533   000FF9                     PC              equ	4089	;# 
   534   000FF9                     PCL             equ	4089	;# 
   535   000FFA                     PCLATH          equ	4090	;# 
   536   000FFB                     PCLATU          equ	4091	;# 
   537   000FFC                     STKPTR          equ	4092	;# 
   538   000FFD                     TOS             equ	4093	;# 
   539   000FFD                     TOSL            equ	4093	;# 
   540   000FFE                     TOSH            equ	4094	;# 
   541   000FFF                     TOSU            equ	4095	;# 
   542                           
   543                           	psect	idataBANK0
   544   005C50                     __pidataBANK0:
   545                           	callstack 0
   546                           
   547                           ;initializer for _tempDesejada
   548   005C50  0012               	dw	18
   549                           
   550                           	psect	mediumconst
   551   007E3E                     __pmediumconst:
   552                           	callstack 0
   553   007E3E  00                 	db	0
   554   007E3F                     display7Seg@F11011:
   555                           	callstack 0
   556   007E3F  3F                 	db	63
   557   007E40  06                 	db	6
   558   007E41  6B                 	db	107
   559   007E42  4F                 	db	79
   560   007E43  66                 	db	102
   561   007E44  6D                 	db	109
   562   007E45  7D                 	db	125
   563   007E46  07                 	db	7
   564   007E47  7F                 	db	127
   565   007E48  6F                 	db	111
   566   007E49                     __end_ofdisplay7Seg@F11011:
   567                           	callstack 0
   568   000FD6                     _TMR0           set	4054
   569   000FAB                     _RCSTAbits      set	4011
   570   000FAC                     _TXSTAbits      set	4012
   571   000FAF                     _SPBRG          set	4015
   572   000FC0                     _ADCON2bits     set	4032
   573   000FC1                     _ADCON1bits     set	4033
   574   000F8D                     _LATEbits       set	3981
   575   000F8B                     _LATCbits       set	3979
   576   000FC3                     _ADRESL         set	4035
   577   000FC4                     _ADRESH         set	4036
   578   000FAD                     _TXREG          set	4013
   579   000FAE                     _RCREG          set	4014
   580   000F9E                     _PIR1bits       set	3998
   581   000F9D                     _PIE1bits       set	3997
   582   000FF2                     _INTCONbits     set	4082
   583   000FC2                     _ADCON0bits     set	4034
   584   000FD5                     _T0CONbits      set	4053
   585   000F8C                     _LATD           set	3980
   586   000F94                     _TRISCbits      set	3988
   587   000F95                     _TRISD          set	3989
   588   000F96                     _TRISE          set	3990
   589   000F94                     _TRISC          set	3988
   590   000F92                     _TRISAbits      set	3986
   591   000FD3                     _OSCCON         set	4051
   592   000F89                     _LATAbits       set	3977
   593   000F8C                     _LATDbits       set	3980
   594   007E49                     STR_1:
   595   007E49  0D                 	db	13
   596   007E4A  0A                 	db	10
   597   007E4B  43                 	db	67	;'C'
   598   007E4C  6F                 	db	111	;'o'
   599   007E4D  6D                 	db	109	;'m'
   600   007E4E  61                 	db	97	;'a'
   601   007E4F  6E                 	db	110	;'n'
   602   007E50  64                 	db	100	;'d'
   603   007E51  6F                 	db	111	;'o'
   604   007E52  73                 	db	115	;'s'
   605   007E53  20                 	db	32
   606   007E54  44                 	db	68	;'D'
   607   007E55  69                 	db	105	;'i'
   608   007E56  73                 	db	115	;'s'
   609   007E57  70                 	db	112	;'p'
   610   007E58  6F                 	db	111	;'o'
   611   007E59  6E                 	db	110	;'n'
   612   007E5A  69                 	db	105	;'i'
   613   007E5B  76                 	db	118	;'v'
   614   007E5C  65                 	db	101	;'e'
   615   007E5D  69                 	db	105	;'i'
   616   007E5E  73                 	db	115	;'s'
   617   007E5F  3A                 	db	58	;':'
   618   007E60  20                 	db	32
   619   007E61  0D                 	db	13
   620   007E62  0A                 	db	10
   621   007E63  41                 	db	65	;'A'
   622   007E64  20                 	db	32
   623   007E65  20                 	db	32
   624   007E66  20                 	db	32
   625   007E67  20                 	db	32
   626   007E68  20                 	db	32
   627   007E69  4D                 	db	77	;'M'
   628   007E6A  6F                 	db	111	;'o'
   629   007E6B  64                 	db	100	;'d'
   630   007E6C  6F                 	db	111	;'o'
   631   007E6D  20                 	db	32
   632   007E6E  41                 	db	65	;'A'
   633   007E6F  75                 	db	117	;'u'
   634   007E70  74                 	db	116	;'t'
   635   007E71  6F                 	db	111	;'o'
   636   007E72  6D                 	db	109	;'m'
   637   007E73  61                 	db	97	;'a'
   638   007E74  74                 	db	116	;'t'
   639   007E75  69                 	db	105	;'i'
   640   007E76  63                 	db	99	;'c'
   641   007E77  6F                 	db	111	;'o'
   642   007E78  0D                 	db	13
   643   007E79  0A                 	db	10
   644   007E7A  4D                 	db	77	;'M'
   645   007E7B  2B                 	db	43
   646   007E7C  20                 	db	32
   647   007E7D  20                 	db	32
   648   007E7E  20                 	db	32
   649   007E7F  20                 	db	32
   650   007E80  4D                 	db	77	;'M'
   651   007E81  61                 	db	97	;'a'
   652   007E82  6E                 	db	110	;'n'
   653   007E83  75                 	db	117	;'u'
   654   007E84  61                 	db	97	;'a'
   655   007E85  6C                 	db	108	;'l'
   656   007E86  20                 	db	32
   657   007E87  2B                 	db	43
   658   007E88  54                 	db	84	;'T'
   659   007E89  65                 	db	101	;'e'
   660   007E8A  6D                 	db	109	;'m'
   661   007E8B  70                 	db	112	;'p'
   662   007E8C  65                 	db	101	;'e'
   663   007E8D  72                 	db	114	;'r'
   664   007E8E  61                 	db	97	;'a'
   665   007E8F  74                 	db	116	;'t'
   666   007E90  75                 	db	117	;'u'
   667   007E91  72                 	db	114	;'r'
   668   007E92  61                 	db	97	;'a'
   669   007E93  0D                 	db	13
   670   007E94  0A                 	db	10
   671   007E95  4D                 	db	77	;'M'
   672   007E96  2D                 	db	45
   673   007E97  20                 	db	32
   674   007E98  20                 	db	32
   675   007E99  20                 	db	32
   676   007E9A  20                 	db	32
   677   007E9B  4D                 	db	77	;'M'
   678   007E9C  61                 	db	97	;'a'
   679   007E9D  6E                 	db	110	;'n'
   680   007E9E  75                 	db	117	;'u'
   681   007E9F  61                 	db	97	;'a'
   682   007EA0  6C                 	db	108	;'l'
   683   007EA1  20                 	db	32
   684   007EA2  2D                 	db	45
   685   007EA3  54                 	db	84	;'T'
   686   007EA4  65                 	db	101	;'e'
   687   007EA5  6D                 	db	109	;'m'
   688   007EA6  70                 	db	112	;'p'
   689   007EA7  65                 	db	101	;'e'
   690   007EA8  72                 	db	114	;'r'
   691   007EA9  61                 	db	97	;'a'
   692   007EAA  74                 	db	116	;'t'
   693   007EAB  75                 	db	117	;'u'
   694   007EAC  72                 	db	114	;'r'
   695   007EAD  61                 	db	97	;'a'
   696   007EAE  0D                 	db	13
   697   007EAF  0A                 	db	10
   698   007EB0  4F                 	db	79	;'O'
   699   007EB1  66                 	db	102	;'f'
   700   007EB2  66                 	db	102	;'f'
   701   007EB3  20                 	db	32
   702   007EB4  20                 	db	32
   703   007EB5  20                 	db	32
   704   007EB6  44                 	db	68	;'D'
   705   007EB7  65                 	db	101	;'e'
   706   007EB8  73                 	db	115	;'s'
   707   007EB9  6C                 	db	108	;'l'
   708   007EBA  69                 	db	105	;'i'
   709   007EBB  67                 	db	103	;'g'
   710   007EBC  61                 	db	97	;'a'
   711   007EBD  72                 	db	114	;'r'
   712   007EBE  20                 	db	32
   713   007EBF  6F                 	db	111	;'o'
   714   007EC0  20                 	db	32
   715   007EC1  41                 	db	65	;'A'
   716   007EC2  2F                 	db	47
   717   007EC3  43                 	db	67	;'C'
   718   007EC4  0D                 	db	13
   719   007EC5  0A                 	db	10
   720   007EC6  0D                 	db	13
   721   007EC7  0A                 	db	10
   722   007EC8  00                 	db	0
   723   007EC9                     STR_9:
   724   007EC9  41                 	db	65	;'A'
   725   007ECA  2F                 	db	47
   726   007ECB  43                 	db	67	;'C'
   727   007ECC  3A                 	db	58	;':'
   728   007ECD  20                 	db	32
   729   007ECE  32                 	db	50	;'2'
   730   007ECF  32                 	db	50	;'2'
   731   007ED0  2E                 	db	46
   732   007ED1  30                 	db	48	;'0'
   733   007ED2  00                 	db	0
   734   007ED3                     STR_10:
   735   007ED3  41                 	db	65	;'A'
   736   007ED4  2F                 	db	47
   737   007ED5  43                 	db	67	;'C'
   738   007ED6  3A                 	db	58	;':'
   739   007ED7  20                 	db	32
   740   007ED8  32                 	db	50	;'2'
   741   007ED9  36                 	db	54	;'6'
   742   007EDA  2E                 	db	46
   743   007EDB  30                 	db	48	;'0'
   744   007EDC  00                 	db	0
   745   007EDD                     STR_8:
   746   007EDD  41                 	db	65	;'A'
   747   007EDE  2F                 	db	47
   748   007EDF  43                 	db	67	;'C'
   749   007EE0  3A                 	db	58	;':'
   750   007EE1  20                 	db	32
   751   007EE2  31                 	db	49	;'1'
   752   007EE3  38                 	db	56	;'8'
   753   007EE4  2E                 	db	46
   754   007EE5  30                 	db	48	;'0'
   755   007EE6  00                 	db	0
   756   007EE7                     STR_4:
   757   007EE7  41                 	db	65	;'A'
   758   007EE8  2F                 	db	47
   759   007EE9  43                 	db	67	;'C'
   760   007EEA  3A                 	db	58	;':'
   761   007EEB  20                 	db	32
   762   007EEC  25                 	db	37
   763   007EED  64                 	db	100	;'d'
   764   007EEE  00                 	db	0
   765   007EEF                     STR_2:
   766   007EEF  4F                 	db	79	;'O'
   767   007EF0  66                 	db	102	;'f'
   768   007EF1  66                 	db	102	;'f'
   769   007EF2  00                 	db	0
   770   007EF3                     STR_3:
   771   007EF3  4D                 	db	77	;'M'
   772   007EF4  2B                 	db	43
   773   007EF5  00                 	db	0
   774   007EF6                     STR_5:
   775   007EF6  4D                 	db	77	;'M'
   776   007EF7  2D                 	db	45
   777   007EF8  00                 	db	0
   778   007EF9                     STR_7:
   779   007EF9  41                 	db	65	;'A'
   780   007EFA  00                 	db	0
   781   007EE7                     STR_6           equ	STR_4
   782   007EFB  00                 	db	0	; dummy byte at the end
   783   007E3E                     __smallconst    set	__pmediumconst
   784   007E3E                     __mediumconst   set	__pmediumconst
   785   000002                     __activetblptr  equ	2
   786                           
   787                           ; #config settings
   788                           
   789                           	psect	cinit
   790   005DCE                     __pcinit:
   791                           	callstack 0
   792   005DCE                     start_initialization:
   793                           	callstack 0
   794   005DCE                     __initialization:
   795                           	callstack 0
   796                           
   797                           ; Initialize objects allocated to BANK0 (2 bytes)
   798                           ; load TBLPTR registers with __pidataBANK0
   799   005DCE  0E50               	movlw	low __pidataBANK0
   800   005DD0  6EF6               	movwf	tblptrl,c
   801   005DD2  0E5C               	movlw	high __pidataBANK0
   802   005DD4  6EF7               	movwf	tblptrh,c
   803   005DD6  0E00               	movlw	low (__pidataBANK0 shr (0+16))
   804   005DD8  6EF8               	movwf	tblptru,c
   805   005DDA  0009               	tblrd		*+	;fetch initializer
   806   005DDC  CFF5 F0E2          	movff	tablat,__pdataBANK0
   807   005DE0  0009               	tblrd		*+	;fetch initializer
   808   005DE2  CFF5 F0E3          	movff	tablat,__pdataBANK0+1
   809                           
   810                           ; Clear objects allocated to BANK0 (34 bytes)
   811   005DE6  EE00  F0C0         	lfsr	0,__pbssBANK0
   812   005DEA  0E22               	movlw	34
   813   005DEC                     clear_0:
   814   005DEC  6AEE               	clrf	postinc0,c
   815   005DEE  06E8               	decf	wreg,f,c
   816   005DF0  E1FD               	bnz	clear_0
   817                           
   818                           ; Clear objects allocated to COMRAM (17 bytes)
   819   005DF2  EE00  F03A         	lfsr	0,__pbssCOMRAM
   820   005DF6  0E11               	movlw	17
   821   005DF8                     clear_1:
   822   005DF8  6AEE               	clrf	postinc0,c
   823   005DFA  06E8               	decf	wreg,f,c
   824   005DFC  E1FD               	bnz	clear_1
   825   005DFE                     end_of_initialization:
   826                           	callstack 0
   827   005DFE                     __end_of__initialization:
   828                           	callstack 0
   829   005DFE  904B               	bcf	int$flags,0,c	;clear compiler interrupt flag (level 1)
   830   005E00  924B               	bcf	int$flags,1,c	;clear compiler interrupt flag (level 2)
   831   005E02  0E00               	movlw	low (__Lmediumconst shr (0+16))
   832   005E04  6EF8               	movwf	tblptru,c
   833   005E06  0100               	movlb	0
   834   005E08  EFFE  F032         	goto	_main	;jump to C main() function
   835                           
   836                           	psect	bssCOMRAM
   837   00003A                     __pbssCOMRAM:
   838                           	callstack 0
   839   00003A                     _width:
   840                           	callstack 0
   841   00003A                     	ds	2
   842   00003C                     _prec:
   843                           	callstack 0
   844   00003C                     	ds	2
   845   00003E                     _indice:
   846                           	callstack 0
   847   00003E                     	ds	2
   848   000040                     _flags:
   849                           	callstack 0
   850   000040                     	ds	1
   851   000041                     _str:
   852                           	callstack 0
   853   000041                     	ds	5
   854   000046                     _buffer:
   855                           	callstack 0
   856   000046                     	ds	5
   857                           
   858                           	psect	bssBANK0
   859   0000C0                     __pbssBANK0:
   860                           	callstack 0
   861   0000C0                     _dbuf:
   862                           	callstack 0
   863   0000C0                     	ds	32
   864   0000E0                     _manual:
   865                           	callstack 0
   866   0000E0                     	ds	1
   867   0000E1                     _automatico:
   868                           	callstack 0
   869   0000E1                     	ds	1
   870                           
   871                           	psect	dataBANK0
   872   0000E2                     __pdataBANK0:
   873                           	callstack 0
   874   0000E2                     _tempDesejada:
   875                           	callstack 0
   876   0000E2                     	ds	2
   877                           
   878                           	psect	cstackBANK0
   879   000060                     __pcstackBANK0:
   880                           	callstack 0
   881   000060                     ?___awdiv:
   882                           	callstack 0
   883   000060                     ?___awmod:
   884                           	callstack 0
   885   000060                     ?___fladd:
   886                           	callstack 0
   887   000060                     ?___xxtofl:
   888                           	callstack 0
   889   000060                     txUsart@ch:
   890                           	callstack 0
   891   000060                     display7Seg@num:
   892                           	callstack 0
   893   000060                     ___awdiv@dividend:
   894                           	callstack 0
   895   000060                     ___awmod@dividend:
   896                           	callstack 0
   897   000060                     ___flge@ff1:
   898                           	callstack 0
   899   000060                     ___fladd@b:
   900                           	callstack 0
   901   000060                     ___xxtofl@val:
   902                           	callstack 0
   903   000060                     
   904                           ; 1 bytes @ 0x0
   905   000060                     	ds	1
   906   000061                     enviarString@str:
   907                           	callstack 0
   908                           
   909                           ; 2 bytes @ 0x1
   910   000061                     	ds	1
   911   000062                     ___awdiv@divisor:
   912                           	callstack 0
   913   000062                     ___awmod@divisor:
   914                           	callstack 0
   915   000062                     ??_display7Seg:
   916                           
   917                           ; 1 bytes @ 0x2
   918   000062                     	ds	1
   919   000063                     display7Seg@numeros:
   920                           	callstack 0
   921   000063                     
   922                           ; 1 bytes @ 0x3
   923   000063                     	ds	1
   924   000064                     ___awdiv@counter:
   925                           	callstack 0
   926   000064                     ___awmod@counter:
   927                           	callstack 0
   928   000064                     ___flge@ff2:
   929                           	callstack 0
   930   000064                     ___fladd@a:
   931                           	callstack 0
   932   000064                     ??___xxtofl:
   933                           
   934                           ; 1 bytes @ 0x4
   935   000064                     	ds	1
   936   000065                     ___awdiv@sign:
   937                           	callstack 0
   938   000065                     ___awmod@sign:
   939                           	callstack 0
   940                           
   941                           ; 1 bytes @ 0x5
   942   000065                     	ds	1
   943   000066                     ___awdiv@quotient:
   944                           	callstack 0
   945                           
   946                           ; 2 bytes @ 0x6
   947   000066                     	ds	2
   948   000068                     ___xxtofl@sign:
   949                           	callstack 0
   950   000068                     ??___fladd:
   951   000068                     ??___flge:
   952                           
   953                           ; 1 bytes @ 0x8
   954   000068                     	ds	1
   955   000069                     ___xxtofl@exp:
   956                           	callstack 0
   957                           
   958                           ; 1 bytes @ 0x9
   959   000069                     	ds	1
   960   00006A                     ___xxtofl@arg:
   961                           	callstack 0
   962                           
   963                           ; 4 bytes @ 0xA
   964   00006A                     	ds	2
   965   00006C                     ___fladd@signs:
   966                           	callstack 0
   967   00006C                     regularTemperatura@temp:
   968                           	callstack 0
   969                           
   970                           ; 4 bytes @ 0xC
   971   00006C                     	ds	1
   972   00006D                     display7Seg@segmentos:
   973                           	callstack 0
   974   00006D                     ___fladd@aexp:
   975                           	callstack 0
   976                           
   977                           ; 1 bytes @ 0xD
   978   00006D                     	ds	1
   979   00006E                     ?___fldiv:
   980                           	callstack 0
   981   00006E                     ___fladd@bexp:
   982                           	callstack 0
   983   00006E                     ___fldiv@b:
   984                           	callstack 0
   985                           
   986                           ; 4 bytes @ 0xE
   987   00006E                     	ds	1
   988   00006F                     ___fladd@grs:
   989                           	callstack 0
   990                           
   991                           ; 1 bytes @ 0xF
   992   00006F                     	ds	1
   993   000070                     ?___flsub:
   994                           	callstack 0
   995   000070                     ___flsub@b:
   996                           	callstack 0
   997   000070                     
   998                           ; 1 bytes @ 0x10
   999   000070                     	ds	2
  1000   000072                     ___fldiv@a:
  1001                           	callstack 0
  1002                           
  1003                           ; 4 bytes @ 0x12
  1004   000072                     	ds	2
  1005   000074                     ___flsub@a:
  1006                           	callstack 0
  1007                           
  1008                           ; 4 bytes @ 0x14
  1009   000074                     	ds	2
  1010   000076                     ??___fldiv:
  1011                           
  1012                           ; 1 bytes @ 0x16
  1013   000076                     	ds	2
  1014   000078                     
  1015                           ; 1 bytes @ 0x18
  1016   000078                     	ds	2
  1017   00007A                     ___fldiv@rem:
  1018                           	callstack 0
  1019                           
  1020                           ; 4 bytes @ 0x1A
  1021   00007A                     	ds	4
  1022   00007E                     ___fldiv@sign:
  1023                           	callstack 0
  1024                           
  1025                           ; 1 bytes @ 0x1E
  1026   00007E                     	ds	1
  1027   00007F                     ___fldiv@new_exp:
  1028                           	callstack 0
  1029                           
  1030                           ; 2 bytes @ 0x1F
  1031   00007F                     	ds	2
  1032   000081                     ___fldiv@grs:
  1033                           	callstack 0
  1034                           
  1035                           ; 4 bytes @ 0x21
  1036   000081                     	ds	4
  1037   000085                     ___fldiv@bexp:
  1038                           	callstack 0
  1039                           
  1040                           ; 1 bytes @ 0x25
  1041   000085                     	ds	1
  1042   000086                     ___fldiv@aexp:
  1043                           	callstack 0
  1044                           
  1045                           ; 1 bytes @ 0x26
  1046   000086                     	ds	1
  1047   000087                     ?___flmul:
  1048                           	callstack 0
  1049   000087                     ___flmul@b:
  1050                           	callstack 0
  1051                           
  1052                           ; 4 bytes @ 0x27
  1053   000087                     	ds	4
  1054   00008B                     ___flmul@a:
  1055                           	callstack 0
  1056                           
  1057                           ; 4 bytes @ 0x2B
  1058   00008B                     	ds	4
  1059   00008F                     ??___flmul:
  1060                           
  1061                           ; 1 bytes @ 0x2F
  1062   00008F                     	ds	4
  1063   000093                     ___flmul@sign:
  1064                           	callstack 0
  1065                           
  1066                           ; 1 bytes @ 0x33
  1067   000093                     	ds	1
  1068   000094                     ___flmul@grs:
  1069                           	callstack 0
  1070                           
  1071                           ; 4 bytes @ 0x34
  1072   000094                     	ds	4
  1073   000098                     ___flmul@aexp:
  1074                           	callstack 0
  1075                           
  1076                           ; 1 bytes @ 0x38
  1077   000098                     	ds	1
  1078   000099                     ___flmul@bexp:
  1079                           	callstack 0
  1080                           
  1081                           ; 1 bytes @ 0x39
  1082   000099                     	ds	1
  1083   00009A                     ___flmul@prod:
  1084                           	callstack 0
  1085                           
  1086                           ; 4 bytes @ 0x3A
  1087   00009A                     	ds	4
  1088   00009E                     ___flmul@temp:
  1089                           	callstack 0
  1090                           
  1091                           ; 2 bytes @ 0x3E
  1092   00009E                     	ds	2
  1093   0000A0                     ?_lerTemperatura:
  1094                           	callstack 0
  1095   0000A0                     ?___fltol:
  1096                           	callstack 0
  1097   0000A0                     ___fltol@f1:
  1098                           	callstack 0
  1099                           
  1100                           ; 4 bytes @ 0x40
  1101   0000A0                     	ds	4
  1102   0000A4                     ??_lerTemperatura:
  1103   0000A4                     ??___fltol:
  1104                           
  1105                           ; 1 bytes @ 0x44
  1106   0000A4                     	ds	2
  1107   0000A6                     lerTemperatura@sample:
  1108                           	callstack 0
  1109                           
  1110                           ; 2 bytes @ 0x46
  1111   0000A6                     	ds	2
  1112   0000A8                     ___fltol@sign1:
  1113                           	callstack 0
  1114                           
  1115                           ; 1 bytes @ 0x48
  1116   0000A8                     	ds	1
  1117   0000A9                     ___fltol@exp1:
  1118                           	callstack 0
  1119                           
  1120                           ; 1 bytes @ 0x49
  1121   0000A9                     	ds	1
  1122   0000AA                     displayTemperatura@temp:
  1123                           	callstack 0
  1124                           
  1125                           ; 4 bytes @ 0x4A
  1126   0000AA                     	ds	4
  1127   0000AE                     ??_displayTemperatura:
  1128                           
  1129                           ; 1 bytes @ 0x4E
  1130   0000AE                     	ds	2
  1131   0000B0                     displayTemperatura@decimal:
  1132                           	callstack 0
  1133                           
  1134                           ; 2 bytes @ 0x50
  1135   0000B0                     	ds	2
  1136   0000B2                     displayTemperatura@digitos:
  1137                           	callstack 0
  1138                           
  1139                           ; 6 bytes @ 0x52
  1140   0000B2                     	ds	6
  1141   0000B8                     displayTemperatura@inteiro:
  1142                           	callstack 0
  1143                           
  1144                           ; 2 bytes @ 0x58
  1145   0000B8                     	ds	2
  1146   0000BA                     displayTemperatura@i:
  1147                           	callstack 0
  1148                           
  1149                           ; 2 bytes @ 0x5A
  1150   0000BA                     	ds	2
  1151   0000BC                     main@temp:
  1152                           	callstack 0
  1153   0000BC                     
  1154                           ; 1 bytes @ 0x5C
  1155   0000BC                     	ds	4
  1156                           
  1157                           	psect	cstackCOMRAM
  1158   000001                     __pcstackCOMRAM:
  1159                           	callstack 0
  1160   000001                     ?_strcmp:
  1161                           	callstack 0
  1162   000001                     ?i2___awdiv:
  1163                           	callstack 0
  1164   000001                     ?i2___awmod:
  1165                           	callstack 0
  1166   000001                     memset@dest:
  1167                           	callstack 0
  1168   000001                     strcmp@l:
  1169                           	callstack 0
  1170   000001                     i2txUsart@ch:
  1171                           	callstack 0
  1172   000001                     fputc@c:
  1173                           	callstack 0
  1174   000001                     i2___awdiv@dividend:
  1175                           	callstack 0
  1176   000001                     i2___awmod@dividend:
  1177                           	callstack 0
  1178   000001                     
  1179                           ; 1 bytes @ 0x0
  1180   000001                     	ds	1
  1181   000002                     memset@c:
  1182                           	callstack 0
  1183   000002                     strcmp@r:
  1184                           	callstack 0
  1185   000002                     i2enviarString@str:
  1186                           	callstack 0
  1187                           
  1188                           ; 2 bytes @ 0x1
  1189   000002                     	ds	1
  1190   000003                     fputc@fp:
  1191                           	callstack 0
  1192   000003                     i2___awdiv@divisor:
  1193                           	callstack 0
  1194   000003                     i2___awmod@divisor:
  1195                           	callstack 0
  1196                           
  1197                           ; 2 bytes @ 0x2
  1198   000003                     	ds	1
  1199   000004                     memset@n:
  1200                           	callstack 0
  1201   000004                     ??_strcmp:
  1202   000004                     ??_fputc:
  1203   000004                     
  1204                           ; 1 bytes @ 0x3
  1205   000004                     	ds	1
  1206   000005                     i2___awdiv@counter:
  1207                           	callstack 0
  1208   000005                     i2___awmod@counter:
  1209                           	callstack 0
  1210   000005                     
  1211                           ; 1 bytes @ 0x4
  1212   000005                     	ds	1
  1213   000006                     memset@p:
  1214                           	callstack 0
  1215   000006                     i2___awdiv@sign:
  1216                           	callstack 0
  1217   000006                     i2___awmod@sign:
  1218                           	callstack 0
  1219   000006                     
  1220                           ; 1 bytes @ 0x5
  1221   000006                     	ds	1
  1222   000007                     ?_abs:
  1223                           	callstack 0
  1224   000007                     abs@a:
  1225                           	callstack 0
  1226   000007                     i2___awdiv@quotient:
  1227                           	callstack 0
  1228                           
  1229                           ; 2 bytes @ 0x6
  1230   000007                     	ds	2
  1231   000009                     ??_abs:
  1232                           
  1233                           ; 1 bytes @ 0x8
  1234   000009                     	ds	2
  1235   00000B                     vfpfcnvrt@fp:
  1236                           	callstack 0
  1237                           
  1238                           ; 1 bytes @ 0xA
  1239   00000B                     	ds	1
  1240   00000C                     vfpfcnvrt@fmt:
  1241                           	callstack 0
  1242                           
  1243                           ; 1 bytes @ 0xB
  1244   00000C                     	ds	1
  1245   00000D                     vfpfcnvrt@ap:
  1246                           	callstack 0
  1247                           
  1248                           ; 1 bytes @ 0xC
  1249   00000D                     	ds	1
  1250   00000E                     ??_vfpfcnvrt:
  1251                           
  1252                           ; 1 bytes @ 0xD
  1253   00000E                     	ds	2
  1254   000010                     vfpfcnvrt@done:
  1255                           	callstack 0
  1256                           
  1257                           ; 1 bytes @ 0xF
  1258   000010                     	ds	1
  1259   000011                     vfpfcnvrt@cp:
  1260                           	callstack 0
  1261                           
  1262                           ; 2 bytes @ 0x10
  1263   000011                     	ds	2
  1264   000013                     vfpfcnvrt@convarg:
  1265                           	callstack 0
  1266                           
  1267                           ; 4 bytes @ 0x12
  1268   000013                     	ds	4
  1269   000017                     vfpfcnvrt@c:
  1270                           	callstack 0
  1271                           
  1272                           ; 1 bytes @ 0x16
  1273   000017                     	ds	1
  1274   000018                     ?_vfprintf:
  1275                           	callstack 0
  1276   000018                     vfprintf@fp:
  1277                           	callstack 0
  1278                           
  1279                           ; 1 bytes @ 0x17
  1280   000018                     	ds	1
  1281   000019                     vfprintf@fmt:
  1282                           	callstack 0
  1283                           
  1284                           ; 2 bytes @ 0x18
  1285   000019                     	ds	2
  1286   00001B                     vfprintf@ap:
  1287                           	callstack 0
  1288                           
  1289                           ; 1 bytes @ 0x1A
  1290   00001B                     	ds	1
  1291   00001C                     vfprintf@cfmt:
  1292                           	callstack 0
  1293   00001C                     
  1294                           ; 1 bytes @ 0x1B
  1295   00001C                     	ds	2
  1296   00001E                     ?_sprintf:
  1297                           	callstack 0
  1298   00001E                     sprintf@s:
  1299                           	callstack 0
  1300                           
  1301                           ; 1 bytes @ 0x1D
  1302   00001E                     	ds	1
  1303   00001F                     sprintf@fmt:
  1304                           	callstack 0
  1305                           
  1306                           ; 2 bytes @ 0x1E
  1307   00001F                     	ds	4
  1308   000023                     sprintf@ap:
  1309                           	callstack 0
  1310   000023                     
  1311                           ; 1 bytes @ 0x22
  1312   000023                     	ds	1
  1313   000024                     sprintf@f:
  1314                           	callstack 0
  1315                           
  1316                           ; 11 bytes @ 0x23
  1317   000024                     	ds	11
  1318   00002F                     ??_rotina_ISR:
  1319                           
  1320                           ; 1 bytes @ 0x2E
  1321   00002F                     	ds	10
  1322   000039                     rotina_ISR@ch:
  1323                           	callstack 0
  1324                           
  1325                           ; 1 bytes @ 0x38
  1326   000039                     	ds	1
  1327                           
  1328 ;;
  1329 ;;Main: autosize = 0, tempsize = 0, incstack = 0, save=0
  1330 ;;
  1331 ;; *************** function _main *****************
  1332 ;; Defined at:
  1333 ;;		line 76 in file "main.c"
  1334 ;; Parameters:    Size  Location     Type
  1335 ;;		None
  1336 ;; Auto vars:     Size  Location     Type
  1337 ;;  temp            4   92[BANK0 ] float 
  1338 ;; Return value:  Size  Location     Type
  1339 ;;                  1    wreg      void 
  1340 ;; Registers used:
  1341 ;;		wreg, fsr1l, fsr1h, fsr2l, fsr2h, status,2, status,0, tblptrl, tblptrh, tblptru, prodl, prodh, cstack
  1342 ;; Tracked objects:
  1343 ;;		On entry : 0/0
  1344 ;;		On exit  : 0/0
  1345 ;;		Unchanged: 0/0
  1346 ;; Data sizes:     COMRAM   BANK0   BANK1   BANK2   BANK3   BANK4   BANK5
  1347 ;;      Params:         0       0       0       0       0       0       0
  1348 ;;      Locals:         0       4       0       0       0       0       0
  1349 ;;      Temps:          0       0       0       0       0       0       0
  1350 ;;      Totals:         0       4       0       0       0       0       0
  1351 ;;Total ram usage:        4 bytes
  1352 ;; Hardware stack levels required when called: 9
  1353 ;; This function calls:
  1354 ;;		_displayTemperatura
  1355 ;;		_lerTemperatura
  1356 ;;		_regularTemperatura
  1357 ;;		_setup
  1358 ;; This function is called by:
  1359 ;;		Startup code after reset
  1360 ;; This function uses a non-reentrant model
  1361 ;;
  1362                           
  1363                           	psect	text0
  1364   0065FC                     __ptext0:
  1365                           	callstack 0
  1366   0065FC                     _main:
  1367                           	callstack 22
  1368   0065FC                     
  1369                           ;main.c: 77:     setup();
  1370   0065FC  ECC8  F02E         	call	_setup	;wreg free
  1371   006600                     l3184:
  1372                           
  1373                           ;main.c: 79:         float temp = lerTemperatura();
  1374   006600  ECEA  F02F         	call	_lerTemperatura	;wreg free
  1375   006604  C0A0  F0BC         	movff	?_lerTemperatura,main@temp
  1376   006608  C0A1  F0BD         	movff	?_lerTemperatura+1,main@temp+1
  1377   00660C  C0A2  F0BE         	movff	?_lerTemperatura+2,main@temp+2
  1378   006610  C0A3  F0BF         	movff	?_lerTemperatura+3,main@temp+3
  1379   006614                     
  1380                           ;main.c: 80:         displayTemperatura(temp);
  1381   006614  C0BC  F0AA         	movff	main@temp,displayTemperatura@temp
  1382   006618  C0BD  F0AB         	movff	main@temp+1,displayTemperatura@temp+1
  1383   00661C  C0BE  F0AC         	movff	main@temp+2,displayTemperatura@temp+2
  1384   006620  C0BF  F0AD         	movff	main@temp+3,displayTemperatura@temp+3
  1385   006624  ECCB  F034         	call	_displayTemperatura	;wreg free
  1386   006628                     
  1387                           ;main.c: 81:         if(automatico){
  1388   006628  0100               	movlb	0	; () banked
  1389   00662A  51E1               	movf	_automatico& (0+255),w,b
  1390   00662C  B4D8               	btfsc	status,2,c
  1391   00662E  EF1B  F033         	goto	u3821
  1392   006632  EF1D  F033         	goto	u3820
  1393   006636                     u3821:
  1394   006636  EF27  F033         	goto	l3192
  1395   00663A                     u3820:
  1396   00663A                     
  1397                           ; BSR set to: 0
  1398                           ;main.c: 82:             regularTemperatura(temp);
  1399   00663A  C0BC  F06C         	movff	main@temp,regularTemperatura@temp
  1400   00663E  C0BD  F06D         	movff	main@temp+1,regularTemperatura@temp+1
  1401   006642  C0BE  F06E         	movff	main@temp+2,regularTemperatura@temp+2
  1402   006646  C0BF  F06F         	movff	main@temp+3,regularTemperatura@temp+3
  1403   00664A  EC8C  F033         	call	_regularTemperatura	;wreg free
  1404   00664E                     l3192:
  1405                           
  1406                           ;main.c: 84:         if(manual){
  1407   00664E  0100               	movlb	0	; () banked
  1408   006650  51E0               	movf	_manual& (0+255),w,b
  1409   006652  B4D8               	btfsc	status,2,c
  1410   006654  EF2E  F033         	goto	u3831
  1411   006658  EF30  F033         	goto	u3830
  1412   00665C                     u3831:
  1413   00665C  EF00  F033         	goto	l3184
  1414   006660                     u3830:
  1415   006660                     
  1416                           ; BSR set to: 0
  1417                           ;main.c: 85:             if(tempDesejada >= 18 && tempDesejada < 22){
  1418   006660  BFE3               	btfsc	(_tempDesejada+1)& (0+255),7,b
  1419   006662  EF3C  F033         	goto	u3841
  1420   006666  51E3               	movf	(_tempDesejada+1)& (0+255),w,b
  1421   006668  E109               	bnz	u3840
  1422   00666A  0E12               	movlw	18
  1423   00666C  5DE2               	subwf	_tempDesejada& (0+255),w,b
  1424   00666E  A0D8               	btfss	status,0,c
  1425   006670  EF3C  F033         	goto	u3841
  1426   006674  EF3E  F033         	goto	u3840
  1427   006678                     u3841:
  1428   006678  EF52  F033         	goto	l3200
  1429   00667C                     u3840:
  1430   00667C                     
  1431                           ; BSR set to: 0
  1432   00667C  BFE3               	btfsc	(_tempDesejada+1)& (0+255),7,b
  1433   00667E  EF4C  F033         	goto	u3850
  1434   006682  51E3               	movf	(_tempDesejada+1)& (0+255),w,b
  1435   006684  E107               	bnz	u3851
  1436   006686  0E16               	movlw	22
  1437   006688  5DE2               	subwf	_tempDesejada& (0+255),w,b
  1438   00668A  B0D8               	btfsc	status,0,c
  1439   00668C  EF4A  F033         	goto	u3851
  1440   006690  EF4C  F033         	goto	u3850
  1441   006694                     u3851:
  1442   006694  EF52  F033         	goto	l3200
  1443   006698                     u3850:
  1444   006698                     
  1445                           ; BSR set to: 0
  1446                           ;main.c: 86:                 LATDbits.LATD7 = 1;
  1447   006698  8E8C               	bsf	140,7,c	;volatile
  1448                           
  1449                           ;main.c: 87:                 LATDbits.LATD6 = 0;
  1450   00669A  9C8C               	bcf	140,6,c	;volatile
  1451                           
  1452                           ;main.c: 88:                 LATDbits.LATD5 = 0;
  1453   00669C  9A8C               	bcf	140,5,c	;volatile
  1454                           
  1455                           ;main.c: 89:                 LATAbits.LATA3 = 1;
  1456   00669E  8689               	bsf	137,3,c	;volatile
  1457                           
  1458                           ;main.c: 90:             }else if(tempDesejada >= 22 && tempDesejada < 26){
  1459   0066A0  EF00  F033         	goto	l3184
  1460   0066A4                     l3200:
  1461                           
  1462                           ; BSR set to: 0
  1463   0066A4  BFE3               	btfsc	(_tempDesejada+1)& (0+255),7,b
  1464   0066A6  EF5E  F033         	goto	u3861
  1465   0066AA  51E3               	movf	(_tempDesejada+1)& (0+255),w,b
  1466   0066AC  E109               	bnz	u3860
  1467   0066AE  0E16               	movlw	22
  1468   0066B0  5DE2               	subwf	_tempDesejada& (0+255),w,b
  1469   0066B2  A0D8               	btfss	status,0,c
  1470   0066B4  EF5E  F033         	goto	u3861
  1471   0066B8  EF60  F033         	goto	u3860
  1472   0066BC                     u3861:
  1473   0066BC  EF74  F033         	goto	l3206
  1474   0066C0                     u3860:
  1475   0066C0                     
  1476                           ; BSR set to: 0
  1477   0066C0  BFE3               	btfsc	(_tempDesejada+1)& (0+255),7,b
  1478   0066C2  EF6E  F033         	goto	u3870
  1479   0066C6  51E3               	movf	(_tempDesejada+1)& (0+255),w,b
  1480   0066C8  E107               	bnz	u3871
  1481   0066CA  0E1A               	movlw	26
  1482   0066CC  5DE2               	subwf	_tempDesejada& (0+255),w,b
  1483   0066CE  B0D8               	btfsc	status,0,c
  1484   0066D0  EF6C  F033         	goto	u3871
  1485   0066D4  EF6E  F033         	goto	u3870
  1486   0066D8                     u3871:
  1487   0066D8  EF74  F033         	goto	l3206
  1488   0066DC                     u3870:
  1489   0066DC                     
  1490                           ; BSR set to: 0
  1491                           ;main.c: 91:                 LATDbits.LATD7 = 0;
  1492   0066DC  9E8C               	bcf	140,7,c	;volatile
  1493                           
  1494                           ;main.c: 92:                 LATDbits.LATD6 = 1;
  1495   0066DE  8C8C               	bsf	140,6,c	;volatile
  1496                           
  1497                           ;main.c: 93:                 LATDbits.LATD5 = 0;
  1498   0066E0  9A8C               	bcf	140,5,c	;volatile
  1499                           
  1500                           ;main.c: 94:                 LATAbits.LATA3 = 0;
  1501   0066E2  9689               	bcf	137,3,c	;volatile
  1502                           
  1503                           ;main.c: 95:             }else if(tempDesejada >= 26){
  1504   0066E4  EF00  F033         	goto	l3184
  1505   0066E8                     l3206:
  1506                           
  1507                           ; BSR set to: 0
  1508   0066E8  BFE3               	btfsc	(_tempDesejada+1)& (0+255),7,b
  1509   0066EA  EF80  F033         	goto	u3881
  1510   0066EE  51E3               	movf	(_tempDesejada+1)& (0+255),w,b
  1511   0066F0  E109               	bnz	u3880
  1512   0066F2  0E1A               	movlw	26
  1513   0066F4  5DE2               	subwf	_tempDesejada& (0+255),w,b
  1514   0066F6  A0D8               	btfss	status,0,c
  1515   0066F8  EF80  F033         	goto	u3881
  1516   0066FC  EF82  F033         	goto	u3880
  1517   006700                     u3881:
  1518   006700  EF88  F033         	goto	l99
  1519   006704                     u3880:
  1520   006704                     
  1521                           ; BSR set to: 0
  1522                           ;main.c: 96:                 LATDbits.LATD7 = 0;
  1523   006704  9E8C               	bcf	140,7,c	;volatile
  1524                           
  1525                           ;main.c: 97:                 LATDbits.LATD6 = 0;
  1526   006706  9C8C               	bcf	140,6,c	;volatile
  1527                           
  1528                           ;main.c: 98:                 LATDbits.LATD5 = 1;
  1529   006708  8A8C               	bsf	140,5,c	;volatile
  1530                           
  1531                           ;main.c: 99:                 LATAbits.LATA3 = 0;
  1532   00670A  9689               	bcf	137,3,c	;volatile
  1533   00670C  EF00  F033         	goto	l3184
  1534   006710                     l99:
  1535                           
  1536                           ; BSR set to: 0
  1537   006710  EF00  F033         	goto	l3184
  1538   006714  EF7E  F03F         	goto	start
  1539   006718                     __end_of_main:
  1540                           	callstack 0
  1541                           
  1542 ;; *************** function _setup *****************
  1543 ;; Defined at:
  1544 ;;		line 106 in file "main.c"
  1545 ;; Parameters:    Size  Location     Type
  1546 ;;		None
  1547 ;; Auto vars:     Size  Location     Type
  1548 ;;		None
  1549 ;; Return value:  Size  Location     Type
  1550 ;;                  1    wreg      void 
  1551 ;; Registers used:
  1552 ;;		wreg, fsr1l, fsr1h, status,2, status,0, tblptrl, tblptrh, tblptru, cstack
  1553 ;; Tracked objects:
  1554 ;;		On entry : 0/0
  1555 ;;		On exit  : 0/0
  1556 ;;		Unchanged: 0/0
  1557 ;; Data sizes:     COMRAM   BANK0   BANK1   BANK2   BANK3   BANK4   BANK5
  1558 ;;      Params:         0       0       0       0       0       0       0
  1559 ;;      Locals:         0       0       0       0       0       0       0
  1560 ;;      Temps:          0       0       0       0       0       0       0
  1561 ;;      Totals:         0       0       0       0       0       0       0
  1562 ;;Total ram usage:        0 bytes
  1563 ;; Hardware stack levels used: 1
  1564 ;; Hardware stack levels required when called: 8
  1565 ;; This function calls:
  1566 ;;		_configAdc
  1567 ;;		_configTimer
  1568 ;;		_configUsart
  1569 ;;		_enviarString
  1570 ;; This function is called by:
  1571 ;;		_main
  1572 ;; This function uses a non-reentrant model
  1573 ;;
  1574                           
  1575                           	psect	text1
  1576   005D90                     __ptext1:
  1577                           	callstack 0
  1578   005D90                     _setup:
  1579                           	callstack 22
  1580   005D90                     
  1581                           ;main.c: 107:     OSCCON = 0x73;
  1582   005D90  0E73               	movlw	115
  1583   005D92  6ED3               	movwf	211,c	;volatile
  1584   005D94                     
  1585                           ;main.c: 108:     TRISAbits.RA0 = 1;
  1586   005D94  8092               	bsf	146,0,c	;volatile
  1587                           
  1588                           ;main.c: 109:     TRISC = 0b11000000;
  1589   005D96  0EC0               	movlw	192
  1590   005D98  6E94               	movwf	148,c	;volatile
  1591                           
  1592                           ;main.c: 110:     TRISE = 0b100;
  1593   005D9A  0E04               	movlw	4
  1594   005D9C  6E96               	movwf	150,c	;volatile
  1595                           
  1596                           ;main.c: 111:     TRISD = 0b00011111;
  1597   005D9E  0E1F               	movlw	31
  1598   005DA0  6E95               	movwf	149,c	;volatile
  1599   005DA2                     
  1600                           ;main.c: 112:     TRISCbits.RC7 = 1;
  1601   005DA2  8E94               	bsf	148,7,c	;volatile
  1602   005DA4                     
  1603                           ;main.c: 113:     TRISCbits.RC6 = 0;
  1604   005DA4  9C94               	bcf	148,6,c	;volatile
  1605   005DA6                     
  1606                           ;main.c: 114:     TRISAbits.RA2 = 0;
  1607   005DA6  9492               	bcf	146,2,c	;volatile
  1608   005DA8                     
  1609                           ;main.c: 115:     TRISAbits.RA3 = 0;
  1610   005DA8  9692               	bcf	146,3,c	;volatile
  1611   005DAA                     
  1612                           ;main.c: 116:     LATD = 0x00;
  1613   005DAA  6A8C               	clrf	140,c	;volatile
  1614   005DAC                     
  1615                           ;main.c: 117:     LATAbits.LATA3 = 0x00;
  1616   005DAC  9689               	bcf	137,3,c	;volatile
  1617   005DAE                     
  1618                           ;main.c: 118:     configTimer();
  1619   005DAE  EC57  F02E         	call	_configTimer	;wreg free
  1620   005DB2                     
  1621                           ;main.c: 119:     configAdc();
  1622   005DB2  EC67  F02E         	call	_configAdc	;wreg free
  1623   005DB6                     
  1624                           ;main.c: 120:     configUsart();
  1625   005DB6  EC4B  F02E         	call	_configUsart	;wreg free
  1626   005DBA                     
  1627                           ;main.c: 121:     T0CONbits.TMR0ON = 1;
  1628   005DBA  8ED5               	bsf	213,7,c	;volatile
  1629   005DBC                     
  1630                           ;main.c: 122:     ADCON0bits.ADON = 1;
  1631   005DBC  80C2               	bsf	194,0,c	;volatile
  1632   005DBE                     
  1633                           ;main.c: 123:     enviarString("\r\nComandos Disponiveis: \r\nA     Modo Automatico\r\nM
      +                          +    Manual +Temperatura\r\nM-    Manual -Temperatura\r\nOff   Desligar o A/C\r\n\r\n");
  1634   005DBE  0E49               	movlw	low STR_1
  1635   005DC0  0100               	movlb	0	; () banked
  1636   005DC2  6F61               	movwf	enviarString@str& (0+255),b
  1637   005DC4  0E7E               	movlw	high STR_1
  1638   005DC6  6F62               	movwf	(enviarString@str+1)& (0+255),b
  1639   005DC8  ECB4  F02F         	call	_enviarString	;wreg free
  1640   005DCC  0012               	return		;funcret
  1641   005DCE                     __end_of_setup:
  1642                           	callstack 0
  1643                           
  1644 ;; *************** function _configUsart *****************
  1645 ;; Defined at:
  1646 ;;		line 326 in file "main.c"
  1647 ;; Parameters:    Size  Location     Type
  1648 ;;		None
  1649 ;; Auto vars:     Size  Location     Type
  1650 ;;		None
  1651 ;; Return value:  Size  Location     Type
  1652 ;;                  1    wreg      void 
  1653 ;; Registers used:
  1654 ;;		wreg, status,2
  1655 ;; Tracked objects:
  1656 ;;		On entry : 0/0
  1657 ;;		On exit  : 0/0
  1658 ;;		Unchanged: 0/0
  1659 ;; Data sizes:     COMRAM   BANK0   BANK1   BANK2   BANK3   BANK4   BANK5
  1660 ;;      Params:         0       0       0       0       0       0       0
  1661 ;;      Locals:         0       0       0       0       0       0       0
  1662 ;;      Temps:          0       0       0       0       0       0       0
  1663 ;;      Totals:         0       0       0       0       0       0       0
  1664 ;;Total ram usage:        0 bytes
  1665 ;; Hardware stack levels used: 1
  1666 ;; Hardware stack levels required when called: 6
  1667 ;; This function calls:
  1668 ;;		Nothing
  1669 ;; This function is called by:
  1670 ;;		_setup
  1671 ;; This function uses a non-reentrant model
  1672 ;;
  1673                           
  1674                           	psect	text2
  1675   005C96                     __ptext2:
  1676                           	callstack 0
  1677   005C96                     _configUsart:
  1678                           	callstack 23
  1679   005C96                     
  1680                           ;main.c: 327:     SPBRG = 25;
  1681   005C96  0E19               	movlw	25
  1682   005C98  6EAF               	movwf	175,c	;volatile
  1683   005C9A                     
  1684                           ;main.c: 328:     TXSTAbits.BRGH = 1;
  1685   005C9A  84AC               	bsf	172,2,c	;volatile
  1686   005C9C                     
  1687                           ;main.c: 329:     TXSTAbits.SYNC = 0;
  1688   005C9C  98AC               	bcf	172,4,c	;volatile
  1689   005C9E                     
  1690                           ;main.c: 330:     RCSTAbits.SPEN = 1;
  1691   005C9E  8EAB               	bsf	171,7,c	;volatile
  1692   005CA0                     
  1693                           ;main.c: 331:     RCSTAbits.RC9 = 0;
  1694   005CA0  9CAB               	bcf	171,6,c	;volatile
  1695   005CA2                     
  1696                           ;main.c: 332:     RCSTAbits.CREN = 1;
  1697   005CA2  88AB               	bsf	171,4,c	;volatile
  1698   005CA4                     
  1699                           ;main.c: 333:     TXSTAbits.TX9 = 0;
  1700   005CA4  9CAC               	bcf	172,6,c	;volatile
  1701   005CA6                     
  1702                           ;main.c: 334:     TXSTAbits.TXEN = 1;
  1703   005CA6  8AAC               	bsf	172,5,c	;volatile
  1704   005CA8                     
  1705                           ;main.c: 335:     PIR1bits.RCIF = 0;
  1706   005CA8  9A9E               	bcf	158,5,c	;volatile
  1707   005CAA                     
  1708                           ;main.c: 336:     PIE1bits.RCIE = 1;
  1709   005CAA  8A9D               	bsf	157,5,c	;volatile
  1710   005CAC  0012               	return		;funcret
  1711   005CAE                     __end_of_configUsart:
  1712                           	callstack 0
  1713                           
  1714 ;; *************** function _configTimer *****************
  1715 ;; Defined at:
  1716 ;;		line 302 in file "main.c"
  1717 ;; Parameters:    Size  Location     Type
  1718 ;;		None
  1719 ;; Auto vars:     Size  Location     Type
  1720 ;;		None
  1721 ;; Return value:  Size  Location     Type
  1722 ;;                  1    wreg      void 
  1723 ;; Registers used:
  1724 ;;		wreg, status,2
  1725 ;; Tracked objects:
  1726 ;;		On entry : 0/0
  1727 ;;		On exit  : 0/0
  1728 ;;		Unchanged: 0/0
  1729 ;; Data sizes:     COMRAM   BANK0   BANK1   BANK2   BANK3   BANK4   BANK5
  1730 ;;      Params:         0       0       0       0       0       0       0
  1731 ;;      Locals:         0       0       0       0       0       0       0
  1732 ;;      Temps:          0       0       0       0       0       0       0
  1733 ;;      Totals:         0       0       0       0       0       0       0
  1734 ;;Total ram usage:        0 bytes
  1735 ;; Hardware stack levels used: 1
  1736 ;; Hardware stack levels required when called: 6
  1737 ;; This function calls:
  1738 ;;		Nothing
  1739 ;; This function is called by:
  1740 ;;		_setup
  1741 ;; This function uses a non-reentrant model
  1742 ;;
  1743                           
  1744                           	psect	text3
  1745   005CAE                     __ptext3:
  1746                           	callstack 0
  1747   005CAE                     _configTimer:
  1748                           	callstack 23
  1749   005CAE                     
  1750                           ;main.c: 303:     T0CONbits.T08BIT = 0;
  1751   005CAE  9CD5               	bcf	213,6,c	;volatile
  1752                           
  1753                           ;main.c: 304:     T0CONbits.T0CS = 0;
  1754   005CB0  9AD5               	bcf	213,5,c	;volatile
  1755                           
  1756                           ;main.c: 305:     T0CONbits.PSA = 0;
  1757   005CB2  96D5               	bcf	213,3,c	;volatile
  1758   005CB4                     
  1759                           ;main.c: 306:     T0CONbits.T0PS = 0b101;
  1760   005CB4  50D5               	movf	213,w,c	;volatile
  1761   005CB6  0BF8               	andlw	-8
  1762   005CB8  0905               	iorlw	5
  1763   005CBA  6ED5               	movwf	213,c	;volatile
  1764                           
  1765                           ;main.c: 307:     TMR0 = 34285;
  1766   005CBC  0E85               	movlw	133
  1767   005CBE  6ED7               	movwf	215,c	;volatile
  1768   005CC0  0EED               	movlw	237
  1769   005CC2  6ED6               	movwf	214,c	;volatile
  1770   005CC4                     
  1771                           ;main.c: 308:     INTCONbits.TMR0IF = 0;
  1772   005CC4  94F2               	bcf	242,2,c	;volatile
  1773   005CC6                     
  1774                           ;main.c: 309:     INTCONbits.TMR0IE = 1;
  1775   005CC6  8AF2               	bsf	242,5,c	;volatile
  1776   005CC8                     
  1777                           ;main.c: 310:     INTCONbits.PEIE = 1;
  1778   005CC8  8CF2               	bsf	242,6,c	;volatile
  1779   005CCA                     
  1780                           ;main.c: 311:     INTCONbits.GIE = 1;
  1781   005CCA  8EF2               	bsf	242,7,c	;volatile
  1782   005CCC  0012               	return		;funcret
  1783   005CCE                     __end_of_configTimer:
  1784                           	callstack 0
  1785                           
  1786 ;; *************** function _configAdc *****************
  1787 ;; Defined at:
  1788 ;;		line 315 in file "main.c"
  1789 ;; Parameters:    Size  Location     Type
  1790 ;;		None
  1791 ;; Auto vars:     Size  Location     Type
  1792 ;;		None
  1793 ;; Return value:  Size  Location     Type
  1794 ;;                  1    wreg      void 
  1795 ;; Registers used:
  1796 ;;		wreg, status,2
  1797 ;; Tracked objects:
  1798 ;;		On entry : 0/0
  1799 ;;		On exit  : 0/0
  1800 ;;		Unchanged: 0/0
  1801 ;; Data sizes:     COMRAM   BANK0   BANK1   BANK2   BANK3   BANK4   BANK5
  1802 ;;      Params:         0       0       0       0       0       0       0
  1803 ;;      Locals:         0       0       0       0       0       0       0
  1804 ;;      Temps:          0       0       0       0       0       0       0
  1805 ;;      Totals:         0       0       0       0       0       0       0
  1806 ;;Total ram usage:        0 bytes
  1807 ;; Hardware stack levels used: 1
  1808 ;; Hardware stack levels required when called: 6
  1809 ;; This function calls:
  1810 ;;		Nothing
  1811 ;; This function is called by:
  1812 ;;		_setup
  1813 ;; This function uses a non-reentrant model
  1814 ;;
  1815                           
  1816                           	psect	text4
  1817   005CCE                     __ptext4:
  1818                           	callstack 0
  1819   005CCE                     _configAdc:
  1820                           	callstack 23
  1821   005CCE                     
  1822                           ;main.c: 316:     ADCON1bits.PCFG = 0b1101;
  1823   005CCE  50C1               	movf	193,w,c	;volatile
  1824   005CD0  0BF0               	andlw	-16
  1825   005CD2  090D               	iorlw	13
  1826   005CD4  6EC1               	movwf	193,c	;volatile
  1827                           
  1828                           ;main.c: 317:     ADCON1bits.VCFG = 0b00;
  1829   005CD6  0ECF               	movlw	-49
  1830   005CD8  16C1               	andwf	193,f,c	;volatile
  1831                           
  1832                           ;main.c: 318:     ADCON0bits.CHS = 0b0000;
  1833   005CDA  0EC3               	movlw	-61
  1834   005CDC  16C2               	andwf	194,f,c	;volatile
  1835                           
  1836                           ;main.c: 319:     ADCON2bits.ADCS = 0b110;
  1837   005CDE  50C0               	movf	192,w,c	;volatile
  1838   005CE0  0BF8               	andlw	-8
  1839   005CE2  0906               	iorlw	6
  1840   005CE4  6EC0               	movwf	192,c	;volatile
  1841                           
  1842                           ;main.c: 320:     ADCON2bits.ACQT = 0b010;
  1843   005CE6  50C0               	movf	192,w,c	;volatile
  1844   005CE8  0BC7               	andlw	-57
  1845   005CEA  0910               	iorlw	16
  1846   005CEC  6EC0               	movwf	192,c	;volatile
  1847   005CEE                     
  1848                           ;main.c: 321:     ADCON2bits.ADFM = 1;
  1849   005CEE  8EC0               	bsf	192,7,c	;volatile
  1850   005CF0                     
  1851                           ;main.c: 322:     PIE1bits.ADIE = 1;
  1852   005CF0  8C9D               	bsf	157,6,c	;volatile
  1853   005CF2  0012               	return		;funcret
  1854   005CF4                     __end_of_configAdc:
  1855                           	callstack 0
  1856                           
  1857 ;; *************** function _regularTemperatura *****************
  1858 ;; Defined at:
  1859 ;;		line 213 in file "main.c"
  1860 ;; Parameters:    Size  Location     Type
  1861 ;;  temp            4   12[BANK0 ] float 
  1862 ;; Auto vars:     Size  Location     Type
  1863 ;;		None
  1864 ;; Return value:  Size  Location     Type
  1865 ;;                  1    wreg      void 
  1866 ;; Registers used:
  1867 ;;		wreg, fsr1l, fsr1h, status,2, status,0, tblptrl, tblptrh, tblptru, cstack
  1868 ;; Tracked objects:
  1869 ;;		On entry : 0/0
  1870 ;;		On exit  : 0/0
  1871 ;;		Unchanged: 0/0
  1872 ;; Data sizes:     COMRAM   BANK0   BANK1   BANK2   BANK3   BANK4   BANK5
  1873 ;;      Params:         0       4       0       0       0       0       0
  1874 ;;      Locals:         0       0       0       0       0       0       0
  1875 ;;      Temps:          0       0       0       0       0       0       0
  1876 ;;      Totals:         0       4       0       0       0       0       0
  1877 ;;Total ram usage:        4 bytes
  1878 ;; Hardware stack levels used: 1
  1879 ;; Hardware stack levels required when called: 8
  1880 ;; This function calls:
  1881 ;;		___flge
  1882 ;;		_enviarString
  1883 ;; This function is called by:
  1884 ;;		_main
  1885 ;; This function uses a non-reentrant model
  1886 ;;
  1887                           
  1888                           	psect	text5
  1889   006718                     __ptext5:
  1890                           	callstack 0
  1891   006718                     _regularTemperatura:
  1892                           	callstack 22
  1893   006718                     
  1894                           ;main.c: 214:     if (temp >= 30.0){
  1895   006718  C06C  F060         	movff	regularTemperatura@temp,___flge@ff1
  1896   00671C  C06D  F061         	movff	regularTemperatura@temp+1,___flge@ff1+1
  1897   006720  C06E  F062         	movff	regularTemperatura@temp+2,___flge@ff1+2
  1898   006724  C06F  F063         	movff	regularTemperatura@temp+3,___flge@ff1+3
  1899   006728  0E00               	movlw	0
  1900   00672A  0100               	movlb	0	; () banked
  1901   00672C  6F64               	movwf	___flge@ff2& (0+255),b
  1902   00672E  0E00               	movlw	0
  1903   006730  6F65               	movwf	(___flge@ff2+1)& (0+255),b
  1904   006732  0EF0               	movlw	240
  1905   006734  6F66               	movwf	(___flge@ff2+2)& (0+255),b
  1906   006736  0E41               	movlw	65
  1907   006738  6F67               	movwf	(___flge@ff2+3)& (0+255),b
  1908   00673A  ECF7  F031         	call	___flge	;wreg free
  1909   00673E  0100               	movlb	0	; () banked
  1910   006740  A0D8               	btfss	status,0,c
  1911   006742  EFA5  F033         	goto	u3711
  1912   006746  EFA7  F033         	goto	u3710
  1913   00674A                     u3711:
  1914   00674A  EFB3  F033         	goto	l3108
  1915   00674E                     u3710:
  1916   00674E                     
  1917                           ; BSR set to: 0
  1918                           ;main.c: 215:         enviarString("A/C: 18.0");
  1919   00674E  0EDD               	movlw	low STR_8
  1920   006750  6F61               	movwf	enviarString@str& (0+255),b
  1921   006752  0E7E               	movlw	high STR_8
  1922   006754  6F62               	movwf	(enviarString@str+1)& (0+255),b
  1923   006756  ECB4  F02F         	call	_enviarString	;wreg free
  1924   00675A                     
  1925                           ;main.c: 216:         LATDbits.LATD7 = 1;
  1926   00675A  8E8C               	bsf	140,7,c	;volatile
  1927   00675C                     
  1928                           ;main.c: 217:         LATDbits.LATD6 = 0;
  1929   00675C  9C8C               	bcf	140,6,c	;volatile
  1930   00675E                     
  1931                           ;main.c: 218:         LATDbits.LATD5 = 0;
  1932   00675E  9A8C               	bcf	140,5,c	;volatile
  1933   006760                     
  1934                           ;main.c: 219:         LATAbits.LATA3 = 1;
  1935   006760  8689               	bsf	137,3,c	;volatile
  1936                           
  1937                           ;main.c: 220:     }else if (temp >= 20.0 && temp < 30.0){
  1938   006762  EF1E  F034         	goto	l152
  1939   006766                     l3108:
  1940                           
  1941                           ; BSR set to: 0
  1942   006766  C06C  F060         	movff	regularTemperatura@temp,___flge@ff1
  1943   00676A  C06D  F061         	movff	regularTemperatura@temp+1,___flge@ff1+1
  1944   00676E  C06E  F062         	movff	regularTemperatura@temp+2,___flge@ff1+2
  1945   006772  C06F  F063         	movff	regularTemperatura@temp+3,___flge@ff1+3
  1946   006776  0E00               	movlw	0
  1947   006778  6F64               	movwf	___flge@ff2& (0+255),b
  1948   00677A  0E00               	movlw	0
  1949   00677C  6F65               	movwf	(___flge@ff2+1)& (0+255),b
  1950   00677E  0EA0               	movlw	160
  1951   006780  6F66               	movwf	(___flge@ff2+2)& (0+255),b
  1952   006782  0E41               	movlw	65
  1953   006784  6F67               	movwf	(___flge@ff2+3)& (0+255),b
  1954   006786  ECF7  F031         	call	___flge	;wreg free
  1955   00678A  0100               	movlb	0	; () banked
  1956   00678C  A0D8               	btfss	status,0,c
  1957   00678E  EFCB  F033         	goto	u3721
  1958   006792  EFCD  F033         	goto	u3720
  1959   006796                     u3721:
  1960   006796  EFF3  F033         	goto	l3122
  1961   00679A                     u3720:
  1962   00679A                     
  1963                           ; BSR set to: 0
  1964   00679A  C06C  F060         	movff	regularTemperatura@temp,___flge@ff1
  1965   00679E  C06D  F061         	movff	regularTemperatura@temp+1,___flge@ff1+1
  1966   0067A2  C06E  F062         	movff	regularTemperatura@temp+2,___flge@ff1+2
  1967   0067A6  C06F  F063         	movff	regularTemperatura@temp+3,___flge@ff1+3
  1968   0067AA  0E00               	movlw	0
  1969   0067AC  6F64               	movwf	___flge@ff2& (0+255),b
  1970   0067AE  0E00               	movlw	0
  1971   0067B0  6F65               	movwf	(___flge@ff2+1)& (0+255),b
  1972   0067B2  0EF0               	movlw	240
  1973   0067B4  6F66               	movwf	(___flge@ff2+2)& (0+255),b
  1974   0067B6  0E41               	movlw	65
  1975   0067B8  6F67               	movwf	(___flge@ff2+3)& (0+255),b
  1976   0067BA  ECF7  F031         	call	___flge	;wreg free
  1977   0067BE  0100               	movlb	0	; () banked
  1978   0067C0  B0D8               	btfsc	status,0,c
  1979   0067C2  EFE5  F033         	goto	u3731
  1980   0067C6  EFE7  F033         	goto	u3730
  1981   0067CA                     u3731:
  1982   0067CA  EFF3  F033         	goto	l3122
  1983   0067CE                     u3730:
  1984   0067CE                     
  1985                           ; BSR set to: 0
  1986                           ;main.c: 221:         enviarString("A/C: 22.0");
  1987   0067CE  0EC9               	movlw	low STR_9
  1988   0067D0  6F61               	movwf	enviarString@str& (0+255),b
  1989   0067D2  0E7E               	movlw	high STR_9
  1990   0067D4  6F62               	movwf	(enviarString@str+1)& (0+255),b
  1991   0067D6  ECB4  F02F         	call	_enviarString	;wreg free
  1992   0067DA                     
  1993                           ;main.c: 222:         LATDbits.LATD7 = 0;
  1994   0067DA  9E8C               	bcf	140,7,c	;volatile
  1995   0067DC                     
  1996                           ;main.c: 223:         LATDbits.LATD6 = 1;
  1997   0067DC  8C8C               	bsf	140,6,c	;volatile
  1998   0067DE                     
  1999                           ;main.c: 224:         LATDbits.LATD5 = 0;
  2000   0067DE  9A8C               	bcf	140,5,c	;volatile
  2001   0067E0                     
  2002                           ;main.c: 225:         LATAbits.LATA3 = 0;
  2003   0067E0  9689               	bcf	137,3,c	;volatile
  2004                           
  2005                           ;main.c: 226:     }else if (temp >= 0.0 && temp < 20.0){
  2006   0067E2  EF1E  F034         	goto	l152
  2007   0067E6                     l3122:
  2008                           
  2009                           ; BSR set to: 0
  2010   0067E6  BF6F               	btfsc	(regularTemperatura@temp+3)& (0+255),7,b
  2011   0067E8  EFF8  F033         	goto	u3741
  2012   0067EC  EFFA  F033         	goto	u3740
  2013   0067F0                     u3741:
  2014   0067F0  EF1E  F034         	goto	l152
  2015   0067F4                     u3740:
  2016   0067F4                     
  2017                           ; BSR set to: 0
  2018   0067F4  C06C  F060         	movff	regularTemperatura@temp,___flge@ff1
  2019   0067F8  C06D  F061         	movff	regularTemperatura@temp+1,___flge@ff1+1
  2020   0067FC  C06E  F062         	movff	regularTemperatura@temp+2,___flge@ff1+2
  2021   006800  C06F  F063         	movff	regularTemperatura@temp+3,___flge@ff1+3
  2022   006804  0E00               	movlw	0
  2023   006806  6F64               	movwf	___flge@ff2& (0+255),b
  2024   006808  0E00               	movlw	0
  2025   00680A  6F65               	movwf	(___flge@ff2+1)& (0+255),b
  2026   00680C  0EA0               	movlw	160
  2027   00680E  6F66               	movwf	(___flge@ff2+2)& (0+255),b
  2028   006810  0E41               	movlw	65
  2029   006812  6F67               	movwf	(___flge@ff2+3)& (0+255),b
  2030   006814  ECF7  F031         	call	___flge	;wreg free
  2031   006818  0100               	movlb	0	; () banked
  2032   00681A  B0D8               	btfsc	status,0,c
  2033   00681C  EF12  F034         	goto	u3751
  2034   006820  EF14  F034         	goto	u3750
  2035   006824                     u3751:
  2036   006824  EF1E  F034         	goto	l152
  2037   006828                     u3750:
  2038   006828                     
  2039                           ; BSR set to: 0
  2040                           ;main.c: 227:         enviarString("A/C: 26.0");
  2041   006828  0ED3               	movlw	low STR_10
  2042   00682A  6F61               	movwf	enviarString@str& (0+255),b
  2043   00682C  0E7E               	movlw	high STR_10
  2044   00682E  6F62               	movwf	(enviarString@str+1)& (0+255),b
  2045   006830  ECB4  F02F         	call	_enviarString	;wreg free
  2046   006834                     
  2047                           ;main.c: 228:         LATDbits.LATD7 = 0;
  2048   006834  9E8C               	bcf	140,7,c	;volatile
  2049   006836                     
  2050                           ;main.c: 229:         LATDbits.LATD6 = 0;
  2051   006836  9C8C               	bcf	140,6,c	;volatile
  2052   006838                     
  2053                           ;main.c: 230:         LATDbits.LATD5 = 1;
  2054   006838  8A8C               	bsf	140,5,c	;volatile
  2055   00683A                     
  2056                           ;main.c: 231:         LATAbits.LATA3 = 0;
  2057   00683A  9689               	bcf	137,3,c	;volatile
  2058   00683C                     l152:
  2059   00683C  0012               	return		;funcret
  2060   00683E                     __end_of_regularTemperatura:
  2061                           	callstack 0
  2062                           
  2063 ;; *************** function _enviarString *****************
  2064 ;; Defined at:
  2065 ;;		line 203 in file "main.c"
  2066 ;; Parameters:    Size  Location     Type
  2067 ;;  str             2    1[BANK0 ] PTR unsigned char 
  2068 ;;		 -> STR_10(10), STR_9(10), STR_8(10), str(5), 
  2069 ;;		 -> STR_1(128), 
  2070 ;; Auto vars:     Size  Location     Type
  2071 ;;		None
  2072 ;; Return value:  Size  Location     Type
  2073 ;;                  1    wreg      void 
  2074 ;; Registers used:
  2075 ;;		wreg, fsr1l, fsr1h, status,2, status,0, tblptrl, tblptrh, tblptru, cstack
  2076 ;; Tracked objects:
  2077 ;;		On entry : 0/0
  2078 ;;		On exit  : 0/0
  2079 ;;		Unchanged: 0/0
  2080 ;; Data sizes:     COMRAM   BANK0   BANK1   BANK2   BANK3   BANK4   BANK5
  2081 ;;      Params:         0       2       0       0       0       0       0
  2082 ;;      Locals:         0       0       0       0       0       0       0
  2083 ;;      Temps:          0       0       0       0       0       0       0
  2084 ;;      Totals:         0       2       0       0       0       0       0
  2085 ;;Total ram usage:        2 bytes
  2086 ;; Hardware stack levels used: 1
  2087 ;; Hardware stack levels required when called: 7
  2088 ;; This function calls:
  2089 ;;		_txUsart
  2090 ;; This function is called by:
  2091 ;;		_setup
  2092 ;;		_regularTemperatura
  2093 ;; This function uses a non-reentrant model
  2094 ;;
  2095                           
  2096                           	psect	text6
  2097   005F68                     __ptext6:
  2098                           	callstack 0
  2099   005F68                     _enviarString:
  2100                           	callstack 22
  2101   005F68                     
  2102                           ;main.c: 204:     while(*str != '\0'){
  2103   005F68  EFCB  F02F         	goto	l2524
  2104   005F6C                     l2520:
  2105                           
  2106                           ;main.c: 205:         txUsart(*str);
  2107   005F6C  C061  FFF6         	movff	enviarString@str,tblptrl
  2108   005F70  C062  FFF7         	movff	enviarString@str+1,tblptrh
  2109   005F74  6AF8               	clrf	tblptru,c
  2110   005F76  0E05               	movlw	(high __ramtop+-1)
  2111   005F78  64F7               	cpfsgt	tblptrh,c
  2112   005F7A  D003               	bra	u2707
  2113   005F7C  0008               	tblrd		*
  2114   005F7E  50F5               	movf	tablat,w,c
  2115   005F80  D005               	bra	u2700
  2116   005F82                     u2707:
  2117   005F82  CFF6 FFE1          	movff	tblptrl,fsr1l
  2118   005F86  CFF7 FFE2          	movff	tblptrh,fsr1h
  2119   005F8A  50E7               	movf	indf1,w,c
  2120   005F8C                     u2700:
  2121   005F8C  EC3F  F02E         	call	_txUsart
  2122   005F90                     
  2123                           ;main.c: 206:         str++;
  2124   005F90  0100               	movlb	0	; () banked
  2125   005F92  4B61               	infsnz	enviarString@str& (0+255),f,b
  2126   005F94  2B62               	incf	(enviarString@str+1)& (0+255),f,b
  2127   005F96                     l2524:
  2128                           
  2129                           ;main.c: 204:     while(*str != '\0'){
  2130   005F96  C061  FFF6         	movff	enviarString@str,tblptrl
  2131   005F9A  C062  FFF7         	movff	enviarString@str+1,tblptrh
  2132   005F9E  6AF8               	clrf	tblptru,c
  2133   005FA0  0E05               	movlw	(high __ramtop+-1)
  2134   005FA2  64F7               	cpfsgt	tblptrh,c
  2135   005FA4  D003               	bra	u2717
  2136   005FA6  0008               	tblrd		*
  2137   005FA8  50F5               	movf	tablat,w,c
  2138   005FAA  D005               	bra	u2710
  2139   005FAC                     u2717:
  2140   005FAC  CFF6 FFE1          	movff	tblptrl,fsr1l
  2141   005FB0  CFF7 FFE2          	movff	tblptrh,fsr1h
  2142   005FB4  50E7               	movf	indf1,w,c
  2143   005FB6                     u2710:
  2144   005FB6  0900               	iorlw	0
  2145   005FB8  A4D8               	btfss	status,2,c
  2146   005FBA  EFE1  F02F         	goto	u2721
  2147   005FBE  EFE3  F02F         	goto	u2720
  2148   005FC2                     u2721:
  2149   005FC2  EFB6  F02F         	goto	l2520
  2150   005FC6                     u2720:
  2151   005FC6                     
  2152                           ;main.c: 208:     txUsart(13);
  2153   005FC6  0E0D               	movlw	13
  2154   005FC8  EC3F  F02E         	call	_txUsart
  2155                           
  2156                           ;main.c: 209:     txUsart(10);
  2157   005FCC  0E0A               	movlw	10
  2158   005FCE  EC3F  F02E         	call	_txUsart
  2159   005FD2  0012               	return		;funcret
  2160   005FD4                     __end_of_enviarString:
  2161                           	callstack 0
  2162                           
  2163 ;; *************** function _txUsart *****************
  2164 ;; Defined at:
  2165 ;;		line 197 in file "main.c"
  2166 ;; Parameters:    Size  Location     Type
  2167 ;;  ch              1    wreg     unsigned char 
  2168 ;; Auto vars:     Size  Location     Type
  2169 ;;  ch              1    0[BANK0 ] unsigned char 
  2170 ;; Return value:  Size  Location     Type
  2171 ;;                  1    wreg      void 
  2172 ;; Registers used:
  2173 ;;		wreg
  2174 ;; Tracked objects:
  2175 ;;		On entry : 0/0
  2176 ;;		On exit  : 0/0
  2177 ;;		Unchanged: 0/0
  2178 ;; Data sizes:     COMRAM   BANK0   BANK1   BANK2   BANK3   BANK4   BANK5
  2179 ;;      Params:         0       0       0       0       0       0       0
  2180 ;;      Locals:         0       1       0       0       0       0       0
  2181 ;;      Temps:          0       0       0       0       0       0       0
  2182 ;;      Totals:         0       1       0       0       0       0       0
  2183 ;;Total ram usage:        1 bytes
  2184 ;; Hardware stack levels used: 1
  2185 ;; Hardware stack levels required when called: 6
  2186 ;; This function calls:
  2187 ;;		Nothing
  2188 ;; This function is called by:
  2189 ;;		_enviarString
  2190 ;; This function uses a non-reentrant model
  2191 ;;
  2192                           
  2193                           	psect	text7
  2194   005C7E                     __ptext7:
  2195                           	callstack 0
  2196   005C7E                     _txUsart:
  2197                           	callstack 22
  2198                           
  2199                           ;incstack = 0
  2200                           ;txUsart@ch stored from wreg
  2201   005C7E  0100               	movlb	0	; () banked
  2202   005C80  6F60               	movwf	txUsart@ch& (0+255),b
  2203   005C82                     l135:
  2204   005C82  A89E               	btfss	158,4,c	;volatile
  2205   005C84  EF46  F02E         	goto	u2201
  2206   005C88  EF48  F02E         	goto	u2200
  2207   005C8C                     u2201:
  2208   005C8C  EF41  F02E         	goto	l135
  2209   005C90                     u2200:
  2210   005C90                     
  2211                           ;main.c: 199:     TXREG = ch;
  2212   005C90  C060  FFAD         	movff	txUsart@ch,4013	;volatile
  2213   005C94  0012               	return		;funcret
  2214   005C96                     __end_of_txUsart:
  2215                           	callstack 0
  2216                           
  2217 ;; *************** function ___flge *****************
  2218 ;; Defined at:
  2219 ;;		line 4 in file "/opt/microchip/xc8/v3.00/pic/sources/c99/common/flge.c"
  2220 ;; Parameters:    Size  Location     Type
  2221 ;;  ff1             4    0[BANK0 ] void 
  2222 ;;  ff2             4    4[BANK0 ] void 
  2223 ;; Auto vars:     Size  Location     Type
  2224 ;;		None
  2225 ;; Return value:  Size  Location     Type
  2226 ;;		None               void
  2227 ;; Registers used:
  2228 ;;		wreg, status,2, status,0
  2229 ;; Tracked objects:
  2230 ;;		On entry : 0/0
  2231 ;;		On exit  : 0/0
  2232 ;;		Unchanged: 0/0
  2233 ;; Data sizes:     COMRAM   BANK0   BANK1   BANK2   BANK3   BANK4   BANK5
  2234 ;;      Params:         0       8       0       0       0       0       0
  2235 ;;      Locals:         0       0       0       0       0       0       0
  2236 ;;      Temps:          0       4       0       0       0       0       0
  2237 ;;      Totals:         0      12       0       0       0       0       0
  2238 ;;Total ram usage:       12 bytes
  2239 ;; Hardware stack levels used: 1
  2240 ;; Hardware stack levels required when called: 6
  2241 ;; This function calls:
  2242 ;;		Nothing
  2243 ;; This function is called by:
  2244 ;;		_regularTemperatura
  2245 ;; This function uses a non-reentrant model
  2246 ;;
  2247                           
  2248                           	psect	text8
  2249   0063EE                     __ptext8:
  2250                           	callstack 0
  2251   0063EE                     ___flge:
  2252                           	callstack 23
  2253   0063EE  0E00               	movlw	0
  2254   0063F0  0100               	movlb	0	; () banked
  2255   0063F2  1560               	andwf	___flge@ff1& (0+255),w,b
  2256   0063F4  6F68               	movwf	??___flge& (0+255),b
  2257   0063F6  0E00               	movlw	0
  2258   0063F8  1561               	andwf	(___flge@ff1+1)& (0+255),w,b
  2259   0063FA  6F69               	movwf	(??___flge+1)& (0+255),b
  2260   0063FC  0E80               	movlw	128
  2261   0063FE  1562               	andwf	(___flge@ff1+2)& (0+255),w,b
  2262   006400  6F6A               	movwf	(??___flge+2)& (0+255),b
  2263   006402  0E7F               	movlw	127
  2264   006404  1563               	andwf	(___flge@ff1+3)& (0+255),w,b
  2265   006406  6F6B               	movwf	(??___flge+3)& (0+255),b
  2266   006408  5168               	movf	??___flge& (0+255),w,b
  2267   00640A  1169               	iorwf	(??___flge+1)& (0+255),w,b
  2268   00640C  116A               	iorwf	(??___flge+2)& (0+255),w,b
  2269   00640E  116B               	iorwf	(??___flge+3)& (0+255),w,b
  2270   006410  A4D8               	btfss	status,2,c
  2271   006412  EF0D  F032         	goto	u3451
  2272   006416  EF0F  F032         	goto	u3450
  2273   00641A                     u3451:
  2274   00641A  EF17  F032         	goto	l2906
  2275   00641E                     u3450:
  2276   00641E                     
  2277                           ; BSR set to: 0
  2278   00641E  0E00               	movlw	0
  2279   006420  6F60               	movwf	___flge@ff1& (0+255),b
  2280   006422  0E00               	movlw	0
  2281   006424  6F61               	movwf	(___flge@ff1+1)& (0+255),b
  2282   006426  0E00               	movlw	0
  2283   006428  6F62               	movwf	(___flge@ff1+2)& (0+255),b
  2284   00642A  0E00               	movlw	0
  2285   00642C  6F63               	movwf	(___flge@ff1+3)& (0+255),b
  2286   00642E                     l2906:
  2287                           
  2288                           ; BSR set to: 0
  2289   00642E  0E00               	movlw	0
  2290   006430  1564               	andwf	___flge@ff2& (0+255),w,b
  2291   006432  6F68               	movwf	??___flge& (0+255),b
  2292   006434  0E00               	movlw	0
  2293   006436  1565               	andwf	(___flge@ff2+1)& (0+255),w,b
  2294   006438  6F69               	movwf	(??___flge+1)& (0+255),b
  2295   00643A  0E80               	movlw	128
  2296   00643C  1566               	andwf	(___flge@ff2+2)& (0+255),w,b
  2297   00643E  6F6A               	movwf	(??___flge+2)& (0+255),b
  2298   006440  0E7F               	movlw	127
  2299   006442  1567               	andwf	(___flge@ff2+3)& (0+255),w,b
  2300   006444  6F6B               	movwf	(??___flge+3)& (0+255),b
  2301   006446  5168               	movf	??___flge& (0+255),w,b
  2302   006448  1169               	iorwf	(??___flge+1)& (0+255),w,b
  2303   00644A  116A               	iorwf	(??___flge+2)& (0+255),w,b
  2304   00644C  116B               	iorwf	(??___flge+3)& (0+255),w,b
  2305   00644E  A4D8               	btfss	status,2,c
  2306   006450  EF2C  F032         	goto	u3461
  2307   006454  EF2E  F032         	goto	u3460
  2308   006458                     u3461:
  2309   006458  EF36  F032         	goto	l2910
  2310   00645C                     u3460:
  2311   00645C                     
  2312                           ; BSR set to: 0
  2313   00645C  0E00               	movlw	0
  2314   00645E  6F64               	movwf	___flge@ff2& (0+255),b
  2315   006460  0E00               	movlw	0
  2316   006462  6F65               	movwf	(___flge@ff2+1)& (0+255),b
  2317   006464  0E00               	movlw	0
  2318   006466  6F66               	movwf	(___flge@ff2+2)& (0+255),b
  2319   006468  0E00               	movlw	0
  2320   00646A  6F67               	movwf	(___flge@ff2+3)& (0+255),b
  2321   00646C                     l2910:
  2322                           
  2323                           ; BSR set to: 0
  2324   00646C  AF63               	btfss	(___flge@ff1+3)& (0+255),7,b
  2325   00646E  EF3B  F032         	goto	u3471
  2326   006472  EF3D  F032         	goto	u3470
  2327   006476                     u3471:
  2328   006476  EF46  F032         	goto	l2914
  2329   00647A                     u3470:
  2330   00647A                     
  2331                           ; BSR set to: 0
  2332   00647A  6D60               	negf	___flge@ff1& (0+255),b
  2333   00647C  1F61               	comf	(___flge@ff1+1)& (0+255),f,b
  2334   00647E  B0D8               	btfsc	status,0,c
  2335   006480  2B61               	incf	(___flge@ff1+1)& (0+255),f,b
  2336   006482  1F62               	comf	(___flge@ff1+2)& (0+255),f,b
  2337   006484  B0D8               	btfsc	status,0,c
  2338   006486  2B62               	incf	(___flge@ff1+2)& (0+255),f,b
  2339   006488  0E80               	movlw	128
  2340   00648A  5763               	subfwb	(___flge@ff1+3)& (0+255),f,b
  2341   00648C                     l2914:
  2342                           
  2343                           ; BSR set to: 0
  2344   00648C  AF67               	btfss	(___flge@ff2+3)& (0+255),7,b
  2345   00648E  EF4B  F032         	goto	u3481
  2346   006492  EF4D  F032         	goto	u3480
  2347   006496                     u3481:
  2348   006496  EF56  F032         	goto	l447
  2349   00649A                     u3480:
  2350   00649A                     
  2351                           ; BSR set to: 0
  2352   00649A  6D64               	negf	___flge@ff2& (0+255),b
  2353   00649C  1F65               	comf	(___flge@ff2+1)& (0+255),f,b
  2354   00649E  B0D8               	btfsc	status,0,c
  2355   0064A0  2B65               	incf	(___flge@ff2+1)& (0+255),f,b
  2356   0064A2  1F66               	comf	(___flge@ff2+2)& (0+255),f,b
  2357   0064A4  B0D8               	btfsc	status,0,c
  2358   0064A6  2B66               	incf	(___flge@ff2+2)& (0+255),f,b
  2359   0064A8  0E80               	movlw	128
  2360   0064AA  5767               	subfwb	(___flge@ff2+3)& (0+255),f,b
  2361   0064AC                     l447:
  2362                           
  2363                           ; BSR set to: 0
  2364   0064AC  0E00               	movlw	0
  2365   0064AE  1B60               	xorwf	___flge@ff1& (0+255),f,b
  2366   0064B0  0E00               	movlw	0
  2367   0064B2  1B61               	xorwf	(___flge@ff1+1)& (0+255),f,b
  2368   0064B4  0E00               	movlw	0
  2369   0064B6  1B62               	xorwf	(___flge@ff1+2)& (0+255),f,b
  2370   0064B8  0E80               	movlw	128
  2371   0064BA  1B63               	xorwf	(___flge@ff1+3)& (0+255),f,b
  2372   0064BC  0E00               	movlw	0
  2373   0064BE  1B64               	xorwf	___flge@ff2& (0+255),f,b
  2374   0064C0  0E00               	movlw	0
  2375   0064C2  1B65               	xorwf	(___flge@ff2+1)& (0+255),f,b
  2376   0064C4  0E00               	movlw	0
  2377   0064C6  1B66               	xorwf	(___flge@ff2+2)& (0+255),f,b
  2378   0064C8  0E80               	movlw	128
  2379   0064CA  1B67               	xorwf	(___flge@ff2+3)& (0+255),f,b
  2380   0064CC  5164               	movf	___flge@ff2& (0+255),w,b
  2381   0064CE  5D60               	subwf	___flge@ff1& (0+255),w,b
  2382   0064D0  5165               	movf	(___flge@ff2+1)& (0+255),w,b
  2383   0064D2  5961               	subwfb	(___flge@ff1+1)& (0+255),w,b
  2384   0064D4  5166               	movf	(___flge@ff2+2)& (0+255),w,b
  2385   0064D6  5962               	subwfb	(___flge@ff1+2)& (0+255),w,b
  2386   0064D8  5167               	movf	(___flge@ff2+3)& (0+255),w,b
  2387   0064DA  5963               	subwfb	(___flge@ff1+3)& (0+255),w,b
  2388   0064DC  B0D8               	btfsc	status,0,c
  2389   0064DE  EF73  F032         	goto	u3491
  2390   0064E2  EF75  F032         	goto	u3490
  2391   0064E6                     u3491:
  2392   0064E6  EF78  F032         	goto	l2920
  2393   0064EA                     u3490:
  2394   0064EA                     
  2395                           ; BSR set to: 0
  2396   0064EA  90D8               	bcf	status,0,c
  2397   0064EC  EF79  F032         	goto	l452
  2398   0064F0                     l2920:
  2399                           
  2400                           ; BSR set to: 0
  2401   0064F0  80D8               	bsf	status,0,c
  2402   0064F2                     l452:
  2403                           
  2404                           ; BSR set to: 0
  2405   0064F2  0012               	return		;funcret
  2406   0064F4                     __end_of___flge:
  2407                           	callstack 0
  2408                           
  2409 ;; *************** function _lerTemperatura *****************
  2410 ;; Defined at:
  2411 ;;		line 236 in file "main.c"
  2412 ;; Parameters:    Size  Location     Type
  2413 ;;		None
  2414 ;; Auto vars:     Size  Location     Type
  2415 ;;  sample          2   70[BANK0 ] int 
  2416 ;; Return value:  Size  Location     Type
  2417 ;;                  4   64[BANK0 ] float 
  2418 ;; Registers used:
  2419 ;;		wreg, status,2, status,0, prodl, prodh, cstack
  2420 ;; Tracked objects:
  2421 ;;		On entry : 0/0
  2422 ;;		On exit  : 0/0
  2423 ;;		Unchanged: 0/0
  2424 ;; Data sizes:     COMRAM   BANK0   BANK1   BANK2   BANK3   BANK4   BANK5
  2425 ;;      Params:         0       4       0       0       0       0       0
  2426 ;;      Locals:         0       2       0       0       0       0       0
  2427 ;;      Temps:          0       2       0       0       0       0       0
  2428 ;;      Totals:         0       8       0       0       0       0       0
  2429 ;;Total ram usage:        8 bytes
  2430 ;; Hardware stack levels used: 1
  2431 ;; Hardware stack levels required when called: 7
  2432 ;; This function calls:
  2433 ;;		___fldiv
  2434 ;;		___flmul
  2435 ;;		___xxtofl
  2436 ;; This function is called by:
  2437 ;;		_main
  2438 ;; This function uses a non-reentrant model
  2439 ;;
  2440                           
  2441                           	psect	text9
  2442   005FD4                     __ptext9:
  2443                           	callstack 0
  2444   005FD4                     _lerTemperatura:
  2445                           	callstack 23
  2446   005FD4                     
  2447                           ;main.c: 237:     int sample = (ADRESH << 8) | ADRESL;
  2448   005FD4  50C3               	movf	195,w,c	;volatile
  2449   005FD6  CFC4 F0A4          	movff	4036,??_lerTemperatura	;volatile
  2450   005FDA  0100               	movlb	0	; () banked
  2451   005FDC  6BA5               	clrf	(??_lerTemperatura+1)& (0+255),b
  2452   005FDE  C0A4  F0A5         	movff	??_lerTemperatura,??_lerTemperatura+1
  2453   005FE2  6BA4               	clrf	??_lerTemperatura& (0+255),b
  2454   005FE4  11A4               	iorwf	??_lerTemperatura& (0+255),w,b
  2455   005FE6  6FA6               	movwf	lerTemperatura@sample& (0+255),b
  2456   005FE8  51A5               	movf	(??_lerTemperatura+1)& (0+255),w,b
  2457   005FEA  6FA7               	movwf	(lerTemperatura@sample+1)& (0+255),b
  2458   005FEC                     
  2459                           ; BSR set to: 0
  2460                           ;main.c: 238:     return ((float)sample / 1023.0) * 50.0;
  2461   005FEC  0E00               	movlw	0
  2462   005FEE  6F72               	movwf	___fldiv@a& (0+255),b
  2463   005FF0  0EC0               	movlw	192
  2464   005FF2  6F73               	movwf	(___fldiv@a+1)& (0+255),b
  2465   005FF4  0E7F               	movlw	127
  2466   005FF6  6F74               	movwf	(___fldiv@a+2)& (0+255),b
  2467   005FF8  0E44               	movlw	68
  2468   005FFA  6F75               	movwf	(___fldiv@a+3)& (0+255),b
  2469   005FFC  C0A6  F060         	movff	lerTemperatura@sample,___xxtofl@val
  2470   006000  C0A7  F061         	movff	lerTemperatura@sample+1,___xxtofl@val+1
  2471   006004  0E00               	movlw	0
  2472   006006  BF61               	btfsc	(___xxtofl@val+1)& (0+255),7,b
  2473   006008  0EFF               	movlw	-1
  2474   00600A  6F62               	movwf	(___xxtofl@val+2)& (0+255),b
  2475   00600C  6F63               	movwf	(___xxtofl@val+3)& (0+255),b
  2476   00600E  0E01               	movlw	1
  2477   006010  EC98  F035         	call	___xxtofl
  2478   006014  C060  F06E         	movff	?___xxtofl,___fldiv@b
  2479   006018  C061  F06F         	movff	?___xxtofl+1,___fldiv@b+1
  2480   00601C  C062  F070         	movff	?___xxtofl+2,___fldiv@b+2
  2481   006020  C063  F071         	movff	?___xxtofl+3,___fldiv@b+3
  2482   006024  ECE6  F038         	call	___fldiv	;wreg free
  2483   006028  C06E  F087         	movff	?___fldiv,___flmul@b
  2484   00602C  C06F  F088         	movff	?___fldiv+1,___flmul@b+1
  2485   006030  C070  F089         	movff	?___fldiv+2,___flmul@b+2
  2486   006034  C071  F08A         	movff	?___fldiv+3,___flmul@b+3
  2487   006038  0E00               	movlw	0
  2488   00603A  0100               	movlb	0	; () banked
  2489   00603C  6F8B               	movwf	___flmul@a& (0+255),b
  2490   00603E  0E00               	movlw	0
  2491   006040  6F8C               	movwf	(___flmul@a+1)& (0+255),b
  2492   006042  0E48               	movlw	72
  2493   006044  6F8D               	movwf	(___flmul@a+2)& (0+255),b
  2494   006046  0E42               	movlw	66
  2495   006048  6F8E               	movwf	(___flmul@a+3)& (0+255),b
  2496   00604A  ECAF  F03A         	call	___flmul	;wreg free
  2497   00604E  C087  F0A0         	movff	?___flmul,?_lerTemperatura
  2498   006052  C088  F0A1         	movff	?___flmul+1,?_lerTemperatura+1
  2499   006056  C089  F0A2         	movff	?___flmul+2,?_lerTemperatura+2
  2500   00605A  C08A  F0A3         	movff	?___flmul+3,?_lerTemperatura+3
  2501   00605E  0012               	return		;funcret
  2502   006060                     __end_of_lerTemperatura:
  2503                           	callstack 0
  2504                           
  2505 ;; *************** function ___fldiv *****************
  2506 ;; Defined at:
  2507 ;;		line 11 in file "/opt/microchip/xc8/v3.00/pic/sources/c99/common/sprcdiv.c"
  2508 ;; Parameters:    Size  Location     Type
  2509 ;;  b               4   14[BANK0 ] float 
  2510 ;;  a               4   18[BANK0 ] float 
  2511 ;; Auto vars:     Size  Location     Type
  2512 ;;  grs             4   33[BANK0 ] unsigned long 
  2513 ;;  rem             4   26[BANK0 ] unsigned long 
  2514 ;;  new_exp         2   31[BANK0 ] short 
  2515 ;;  aexp            1   38[BANK0 ] unsigned char 
  2516 ;;  bexp            1   37[BANK0 ] unsigned char 
  2517 ;;  sign            1   30[BANK0 ] unsigned char 
  2518 ;; Return value:  Size  Location     Type
  2519 ;;                  4   14[BANK0 ] unsigned char 
  2520 ;; Registers used:
  2521 ;;		wreg, status,2, status,0
  2522 ;; Tracked objects:
  2523 ;;		On entry : 0/0
  2524 ;;		On exit  : 0/0
  2525 ;;		Unchanged: 0/0
  2526 ;; Data sizes:     COMRAM   BANK0   BANK1   BANK2   BANK3   BANK4   BANK5
  2527 ;;      Params:         0       8       0       0       0       0       0
  2528 ;;      Locals:         0      13       0       0       0       0       0
  2529 ;;      Temps:          0       4       0       0       0       0       0
  2530 ;;      Totals:         0      25       0       0       0       0       0
  2531 ;;Total ram usage:       25 bytes
  2532 ;; Hardware stack levels used: 1
  2533 ;; Hardware stack levels required when called: 6
  2534 ;; This function calls:
  2535 ;;		Nothing
  2536 ;; This function is called by:
  2537 ;;		_lerTemperatura
  2538 ;; This function uses a non-reentrant model
  2539 ;;
  2540                           
  2541                           	psect	text10
  2542   0071CC                     __ptext10:
  2543                           	callstack 0
  2544   0071CC                     ___fldiv:
  2545                           	callstack 23
  2546   0071CC  0100               	movlb	0	; () banked
  2547   0071CE  5171               	movf	(___fldiv@b+3)& (0+255),w,b
  2548   0071D0  0B80               	andlw	128
  2549   0071D2  6F7E               	movwf	___fldiv@sign& (0+255),b
  2550   0071D4  5171               	movf	(___fldiv@b+3)& (0+255),w,b
  2551   0071D6  2571               	addwf	(___fldiv@b+3)& (0+255),w,b
  2552   0071D8  6F85               	movwf	___fldiv@bexp& (0+255),b
  2553   0071DA                     
  2554                           ; BSR set to: 0
  2555   0071DA  AF70               	btfss	(___fldiv@b+2)& (0+255),7,b
  2556   0071DC  EFF2  F038         	goto	u2911
  2557   0071E0  EFF4  F038         	goto	u2910
  2558   0071E4                     u2911:
  2559   0071E4  EFF5  F038         	goto	l2558
  2560   0071E8                     u2910:
  2561   0071E8                     
  2562                           ; BSR set to: 0
  2563   0071E8  8185               	bsf	___fldiv@bexp& (0+255),0,b
  2564   0071EA                     l2558:
  2565                           
  2566                           ; BSR set to: 0
  2567   0071EA  5185               	movf	___fldiv@bexp& (0+255),w,b
  2568   0071EC  B4D8               	btfsc	status,2,c
  2569   0071EE  EFFB  F038         	goto	u2921
  2570   0071F2  EFFD  F038         	goto	u2920
  2571   0071F6                     u2921:
  2572   0071F6  EF11  F039         	goto	l2568
  2573   0071FA                     u2920:
  2574   0071FA                     
  2575                           ; BSR set to: 0
  2576   0071FA  2985               	incf	___fldiv@bexp& (0+255),w,b
  2577   0071FC  A4D8               	btfss	status,2,c
  2578   0071FE  EF03  F039         	goto	u2931
  2579   007202  EF05  F039         	goto	u2930
  2580   007206                     u2931:
  2581   007206  EF0D  F039         	goto	l2564
  2582   00720A                     u2930:
  2583   00720A                     
  2584                           ; BSR set to: 0
  2585   00720A  0E00               	movlw	0
  2586   00720C  6F6E               	movwf	___fldiv@b& (0+255),b
  2587   00720E  0E00               	movlw	0
  2588   007210  6F6F               	movwf	(___fldiv@b+1)& (0+255),b
  2589   007212  0E00               	movlw	0
  2590   007214  6F70               	movwf	(___fldiv@b+2)& (0+255),b
  2591   007216  0E00               	movlw	0
  2592   007218  6F71               	movwf	(___fldiv@b+3)& (0+255),b
  2593   00721A                     l2564:
  2594                           
  2595                           ; BSR set to: 0
  2596   00721A  8F70               	bsf	(___fldiv@b+2)& (0+255),7,b
  2597   00721C                     
  2598                           ; BSR set to: 0
  2599   00721C  6B71               	clrf	(___fldiv@b+3)& (0+255),b
  2600   00721E  EF19  F039         	goto	l2570
  2601   007222                     l2568:
  2602                           
  2603                           ; BSR set to: 0
  2604   007222  0E00               	movlw	0
  2605   007224  6F6E               	movwf	___fldiv@b& (0+255),b
  2606   007226  0E00               	movlw	0
  2607   007228  6F6F               	movwf	(___fldiv@b+1)& (0+255),b
  2608   00722A  0E00               	movlw	0
  2609   00722C  6F70               	movwf	(___fldiv@b+2)& (0+255),b
  2610   00722E  0E00               	movlw	0
  2611   007230  6F71               	movwf	(___fldiv@b+3)& (0+255),b
  2612   007232                     l2570:
  2613                           
  2614                           ; BSR set to: 0
  2615   007232  5175               	movf	(___fldiv@a+3)& (0+255),w,b
  2616   007234  0B80               	andlw	128
  2617   007236  1B7E               	xorwf	___fldiv@sign& (0+255),f,b
  2618   007238                     
  2619                           ; BSR set to: 0
  2620   007238  5175               	movf	(___fldiv@a+3)& (0+255),w,b
  2621   00723A  2575               	addwf	(___fldiv@a+3)& (0+255),w,b
  2622   00723C  6F86               	movwf	___fldiv@aexp& (0+255),b
  2623   00723E                     
  2624                           ; BSR set to: 0
  2625   00723E  AF74               	btfss	(___fldiv@a+2)& (0+255),7,b
  2626   007240  EF24  F039         	goto	u2941
  2627   007244  EF26  F039         	goto	u2940
  2628   007248                     u2941:
  2629   007248  EF27  F039         	goto	l2578
  2630   00724C                     u2940:
  2631   00724C                     
  2632                           ; BSR set to: 0
  2633   00724C  8186               	bsf	___fldiv@aexp& (0+255),0,b
  2634   00724E                     l2578:
  2635                           
  2636                           ; BSR set to: 0
  2637   00724E  5186               	movf	___fldiv@aexp& (0+255),w,b
  2638   007250  B4D8               	btfsc	status,2,c
  2639   007252  EF2D  F039         	goto	u2951
  2640   007256  EF2F  F039         	goto	u2950
  2641   00725A                     u2951:
  2642   00725A  EF43  F039         	goto	l2588
  2643   00725E                     u2950:
  2644   00725E                     
  2645                           ; BSR set to: 0
  2646   00725E  2986               	incf	___fldiv@aexp& (0+255),w,b
  2647   007260  A4D8               	btfss	status,2,c
  2648   007262  EF35  F039         	goto	u2961
  2649   007266  EF37  F039         	goto	u2960
  2650   00726A                     u2961:
  2651   00726A  EF3F  F039         	goto	l2584
  2652   00726E                     u2960:
  2653   00726E                     
  2654                           ; BSR set to: 0
  2655   00726E  0E00               	movlw	0
  2656   007270  6F72               	movwf	___fldiv@a& (0+255),b
  2657   007272  0E00               	movlw	0
  2658   007274  6F73               	movwf	(___fldiv@a+1)& (0+255),b
  2659   007276  0E00               	movlw	0
  2660   007278  6F74               	movwf	(___fldiv@a+2)& (0+255),b
  2661   00727A  0E00               	movlw	0
  2662   00727C  6F75               	movwf	(___fldiv@a+3)& (0+255),b
  2663   00727E                     l2584:
  2664                           
  2665                           ; BSR set to: 0
  2666   00727E  8F74               	bsf	(___fldiv@a+2)& (0+255),7,b
  2667   007280                     
  2668                           ; BSR set to: 0
  2669   007280  6B75               	clrf	(___fldiv@a+3)& (0+255),b
  2670   007282  EF4B  F039         	goto	l2590
  2671   007286                     l2588:
  2672                           
  2673                           ; BSR set to: 0
  2674   007286  0E00               	movlw	0
  2675   007288  6F72               	movwf	___fldiv@a& (0+255),b
  2676   00728A  0E00               	movlw	0
  2677   00728C  6F73               	movwf	(___fldiv@a+1)& (0+255),b
  2678   00728E  0E00               	movlw	0
  2679   007290  6F74               	movwf	(___fldiv@a+2)& (0+255),b
  2680   007292  0E00               	movlw	0
  2681   007294  6F75               	movwf	(___fldiv@a+3)& (0+255),b
  2682   007296                     l2590:
  2683                           
  2684                           ; BSR set to: 0
  2685   007296  5172               	movf	___fldiv@a& (0+255),w,b
  2686   007298  1173               	iorwf	(___fldiv@a+1)& (0+255),w,b
  2687   00729A  1174               	iorwf	(___fldiv@a+2)& (0+255),w,b
  2688   00729C  1175               	iorwf	(___fldiv@a+3)& (0+255),w,b
  2689   00729E  A4D8               	btfss	status,2,c
  2690   0072A0  EF54  F039         	goto	u2971
  2691   0072A4  EF56  F039         	goto	u2970
  2692   0072A8                     u2971:
  2693   0072A8  EF6E  F039         	goto	l2602
  2694   0072AC                     u2970:
  2695   0072AC                     
  2696                           ; BSR set to: 0
  2697   0072AC  0E00               	movlw	0
  2698   0072AE  6F6E               	movwf	___fldiv@b& (0+255),b
  2699   0072B0  0E00               	movlw	0
  2700   0072B2  6F6F               	movwf	(___fldiv@b+1)& (0+255),b
  2701   0072B4  0E00               	movlw	0
  2702   0072B6  6F70               	movwf	(___fldiv@b+2)& (0+255),b
  2703   0072B8  0E00               	movlw	0
  2704   0072BA  6F71               	movwf	(___fldiv@b+3)& (0+255),b
  2705   0072BC                     
  2706                           ; BSR set to: 0
  2707   0072BC  0E80               	movlw	128
  2708   0072BE  1370               	iorwf	(___fldiv@b+2)& (0+255),f,b
  2709   0072C0  0E7F               	movlw	127
  2710   0072C2  1371               	iorwf	(___fldiv@b+3)& (0+255),f,b
  2711   0072C4                     l2596:
  2712                           
  2713                           ; BSR set to: 0
  2714   0072C4  517E               	movf	___fldiv@sign& (0+255),w,b
  2715   0072C6  1371               	iorwf	(___fldiv@b+3)& (0+255),f,b
  2716   0072C8                     
  2717                           ; BSR set to: 0
  2718   0072C8  C06E  F06E         	movff	___fldiv@b,?___fldiv
  2719   0072CC  C06F  F06F         	movff	___fldiv@b+1,?___fldiv+1
  2720   0072D0  C070  F070         	movff	___fldiv@b+2,?___fldiv+2
  2721   0072D4  C071  F071         	movff	___fldiv@b+3,?___fldiv+3
  2722   0072D8  EFAE  F03A         	goto	l764
  2723   0072DC                     l2602:
  2724                           
  2725                           ; BSR set to: 0
  2726   0072DC  5185               	movf	___fldiv@bexp& (0+255),w,b
  2727   0072DE  A4D8               	btfss	status,2,c
  2728   0072E0  EF74  F039         	goto	u2981
  2729   0072E4  EF76  F039         	goto	u2980
  2730   0072E8                     u2981:
  2731   0072E8  EF80  F039         	goto	l2610
  2732   0072EC                     u2980:
  2733   0072EC                     
  2734                           ; BSR set to: 0
  2735   0072EC  0E00               	movlw	0
  2736   0072EE  6F6E               	movwf	?___fldiv& (0+255),b
  2737   0072F0  0E00               	movlw	0
  2738   0072F2  6F6F               	movwf	(?___fldiv+1)& (0+255),b
  2739   0072F4  0E00               	movlw	0
  2740   0072F6  6F70               	movwf	(?___fldiv+2)& (0+255),b
  2741   0072F8  0E00               	movlw	0
  2742   0072FA  6F71               	movwf	(?___fldiv+3)& (0+255),b
  2743   0072FC  EFAE  F03A         	goto	l764
  2744   007300                     l2610:
  2745                           
  2746                           ; BSR set to: 0
  2747   007300  5186               	movf	___fldiv@aexp& (0+255),w,b
  2748   007302  C085  F076         	movff	___fldiv@bexp,??___fldiv
  2749   007306  6B77               	clrf	(??___fldiv+1)& (0+255),b
  2750   007308  5F76               	subwf	??___fldiv& (0+255),f,b
  2751   00730A  0E00               	movlw	0
  2752   00730C  5B77               	subwfb	(??___fldiv+1)& (0+255),f,b
  2753   00730E  0E7F               	movlw	127
  2754   007310  2576               	addwf	??___fldiv& (0+255),w,b
  2755   007312  6F7F               	movwf	___fldiv@new_exp& (0+255),b
  2756   007314  0E00               	movlw	0
  2757   007316  2177               	addwfc	(??___fldiv+1)& (0+255),w,b
  2758   007318  6F80               	movwf	(___fldiv@new_exp+1)& (0+255),b
  2759   00731A                     
  2760                           ; BSR set to: 0
  2761   00731A  C06E  F07A         	movff	___fldiv@b,___fldiv@rem
  2762   00731E  C06F  F07B         	movff	___fldiv@b+1,___fldiv@rem+1
  2763   007322  C070  F07C         	movff	___fldiv@b+2,___fldiv@rem+2
  2764   007326  C071  F07D         	movff	___fldiv@b+3,___fldiv@rem+3
  2765   00732A                     
  2766                           ; BSR set to: 0
  2767   00732A  0E00               	movlw	0
  2768   00732C  6F6E               	movwf	___fldiv@b& (0+255),b
  2769   00732E  0E00               	movlw	0
  2770   007330  6F6F               	movwf	(___fldiv@b+1)& (0+255),b
  2771   007332  0E00               	movlw	0
  2772   007334  6F70               	movwf	(___fldiv@b+2)& (0+255),b
  2773   007336  0E00               	movlw	0
  2774   007338  6F71               	movwf	(___fldiv@b+3)& (0+255),b
  2775   00733A                     
  2776                           ; BSR set to: 0
  2777   00733A  0E00               	movlw	0
  2778   00733C  6F81               	movwf	___fldiv@grs& (0+255),b
  2779   00733E  0E00               	movlw	0
  2780   007340  6F82               	movwf	(___fldiv@grs+1)& (0+255),b
  2781   007342  0E00               	movlw	0
  2782   007344  6F83               	movwf	(___fldiv@grs+2)& (0+255),b
  2783   007346  0E00               	movlw	0
  2784   007348  6F84               	movwf	(___fldiv@grs+3)& (0+255),b
  2785   00734A                     
  2786                           ; BSR set to: 0
  2787   00734A  6B86               	clrf	___fldiv@aexp& (0+255),b
  2788   00734C  EFE0  F039         	goto	l766
  2789   007350                     l2620:
  2790                           
  2791                           ; BSR set to: 0
  2792   007350  5186               	movf	___fldiv@aexp& (0+255),w,b
  2793   007352  B4D8               	btfsc	status,2,c
  2794   007354  EFAE  F039         	goto	u2991
  2795   007358  EFB0  F039         	goto	u2990
  2796   00735C                     u2991:
  2797   00735C  EFC7  F039         	goto	l2628
  2798   007360                     u2990:
  2799   007360                     
  2800                           ; BSR set to: 0
  2801   007360  90D8               	bcf	status,0,c
  2802   007362  377A               	rlcf	___fldiv@rem& (0+255),f,b
  2803   007364  377B               	rlcf	(___fldiv@rem+1)& (0+255),f,b
  2804   007366  377C               	rlcf	(___fldiv@rem+2)& (0+255),f,b
  2805   007368  377D               	rlcf	(___fldiv@rem+3)& (0+255),f,b
  2806   00736A  90D8               	bcf	status,0,c
  2807   00736C  376E               	rlcf	___fldiv@b& (0+255),f,b
  2808   00736E  376F               	rlcf	(___fldiv@b+1)& (0+255),f,b
  2809   007370  3770               	rlcf	(___fldiv@b+2)& (0+255),f,b
  2810   007372  3771               	rlcf	(___fldiv@b+3)& (0+255),f,b
  2811   007374                     
  2812                           ; BSR set to: 0
  2813   007374  AF84               	btfss	(___fldiv@grs+3)& (0+255),7,b
  2814   007376  EFBF  F039         	goto	u3001
  2815   00737A  EFC1  F039         	goto	u3000
  2816   00737E                     u3001:
  2817   00737E  EFC2  F039         	goto	l769
  2818   007382                     u3000:
  2819   007382                     
  2820                           ; BSR set to: 0
  2821   007382  816E               	bsf	___fldiv@b& (0+255),0,b
  2822   007384                     l769:
  2823                           
  2824                           ; BSR set to: 0
  2825   007384  90D8               	bcf	status,0,c
  2826   007386  3781               	rlcf	___fldiv@grs& (0+255),f,b
  2827   007388  3782               	rlcf	(___fldiv@grs+1)& (0+255),f,b
  2828   00738A  3783               	rlcf	(___fldiv@grs+2)& (0+255),f,b
  2829   00738C  3784               	rlcf	(___fldiv@grs+3)& (0+255),f,b
  2830   00738E                     l2628:
  2831                           
  2832                           ; BSR set to: 0
  2833   00738E  5172               	movf	___fldiv@a& (0+255),w,b
  2834   007390  5D7A               	subwf	___fldiv@rem& (0+255),w,b
  2835   007392  5173               	movf	(___fldiv@a+1)& (0+255),w,b
  2836   007394  597B               	subwfb	(___fldiv@rem+1)& (0+255),w,b
  2837   007396  5174               	movf	(___fldiv@a+2)& (0+255),w,b
  2838   007398  597C               	subwfb	(___fldiv@rem+2)& (0+255),w,b
  2839   00739A  5175               	movf	(___fldiv@a+3)& (0+255),w,b
  2840   00739C  597D               	subwfb	(___fldiv@rem+3)& (0+255),w,b
  2841   00739E  A0D8               	btfss	status,0,c
  2842   0073A0  EFD4  F039         	goto	u3011
  2843   0073A4  EFD6  F039         	goto	u3010
  2844   0073A8                     u3011:
  2845   0073A8  EFDF  F039         	goto	l2634
  2846   0073AC                     u3010:
  2847   0073AC                     
  2848                           ; BSR set to: 0
  2849   0073AC  8D84               	bsf	(___fldiv@grs+3)& (0+255),6,b
  2850   0073AE                     
  2851                           ; BSR set to: 0
  2852   0073AE  5172               	movf	___fldiv@a& (0+255),w,b
  2853   0073B0  5F7A               	subwf	___fldiv@rem& (0+255),f,b
  2854   0073B2  5173               	movf	(___fldiv@a+1)& (0+255),w,b
  2855   0073B4  5B7B               	subwfb	(___fldiv@rem+1)& (0+255),f,b
  2856   0073B6  5174               	movf	(___fldiv@a+2)& (0+255),w,b
  2857   0073B8  5B7C               	subwfb	(___fldiv@rem+2)& (0+255),f,b
  2858   0073BA  5175               	movf	(___fldiv@a+3)& (0+255),w,b
  2859   0073BC  5B7D               	subwfb	(___fldiv@rem+3)& (0+255),f,b
  2860   0073BE                     l2634:
  2861                           
  2862                           ; BSR set to: 0
  2863   0073BE  2B86               	incf	___fldiv@aexp& (0+255),f,b
  2864   0073C0                     l766:
  2865                           
  2866                           ; BSR set to: 0
  2867   0073C0  0E19               	movlw	25
  2868   0073C2  6586               	cpfsgt	___fldiv@aexp& (0+255),b
  2869   0073C4  EFE6  F039         	goto	u3021
  2870   0073C8  EFE8  F039         	goto	u3020
  2871   0073CC                     u3021:
  2872   0073CC  EFA8  F039         	goto	l2620
  2873   0073D0                     u3020:
  2874   0073D0                     
  2875                           ; BSR set to: 0
  2876   0073D0  517A               	movf	___fldiv@rem& (0+255),w,b
  2877   0073D2  117B               	iorwf	(___fldiv@rem+1)& (0+255),w,b
  2878   0073D4  117C               	iorwf	(___fldiv@rem+2)& (0+255),w,b
  2879   0073D6  117D               	iorwf	(___fldiv@rem+3)& (0+255),w,b
  2880   0073D8  B4D8               	btfsc	status,2,c
  2881   0073DA  EFF1  F039         	goto	u3031
  2882   0073DE  EFF3  F039         	goto	u3030
  2883   0073E2                     u3031:
  2884   0073E2  EF0B  F03A         	goto	l2646
  2885   0073E6                     u3030:
  2886   0073E6                     
  2887                           ; BSR set to: 0
  2888   0073E6  8181               	bsf	___fldiv@grs& (0+255),0,b
  2889   0073E8  EF0B  F03A         	goto	l2646
  2890   0073EC                     l2640:
  2891                           
  2892                           ; BSR set to: 0
  2893   0073EC  90D8               	bcf	status,0,c
  2894   0073EE  376E               	rlcf	___fldiv@b& (0+255),f,b
  2895   0073F0  376F               	rlcf	(___fldiv@b+1)& (0+255),f,b
  2896   0073F2  3770               	rlcf	(___fldiv@b+2)& (0+255),f,b
  2897   0073F4  3771               	rlcf	(___fldiv@b+3)& (0+255),f,b
  2898   0073F6                     
  2899                           ; BSR set to: 0
  2900   0073F6  AF84               	btfss	(___fldiv@grs+3)& (0+255),7,b
  2901   0073F8  EF00  F03A         	goto	u3041
  2902   0073FC  EF02  F03A         	goto	u3040
  2903   007400                     u3041:
  2904   007400  EF03  F03A         	goto	l775
  2905   007404                     u3040:
  2906   007404                     
  2907                           ; BSR set to: 0
  2908   007404  816E               	bsf	___fldiv@b& (0+255),0,b
  2909   007406                     l775:
  2910                           
  2911                           ; BSR set to: 0
  2912   007406  90D8               	bcf	status,0,c
  2913   007408  3781               	rlcf	___fldiv@grs& (0+255),f,b
  2914   00740A  3782               	rlcf	(___fldiv@grs+1)& (0+255),f,b
  2915   00740C  3783               	rlcf	(___fldiv@grs+2)& (0+255),f,b
  2916   00740E  3784               	rlcf	(___fldiv@grs+3)& (0+255),f,b
  2917   007410  077F               	decf	___fldiv@new_exp& (0+255),f,b
  2918   007412  A0D8               	btfss	status,0,c
  2919   007414  0780               	decf	(___fldiv@new_exp+1)& (0+255),f,b
  2920   007416                     l2646:
  2921                           
  2922                           ; BSR set to: 0
  2923   007416  AF70               	btfss	(___fldiv@b+2)& (0+255),7,b
  2924   007418  EF10  F03A         	goto	u3051
  2925   00741C  EF12  F03A         	goto	u3050
  2926   007420                     u3051:
  2927   007420  EFF6  F039         	goto	l2640
  2928   007424                     u3050:
  2929   007424                     
  2930                           ; BSR set to: 0
  2931   007424  6B86               	clrf	___fldiv@aexp& (0+255),b
  2932   007426  AF84               	btfss	(___fldiv@grs+3)& (0+255),7,b
  2933   007428  EF18  F03A         	goto	u3061
  2934   00742C  EF1A  F03A         	goto	u3060
  2935   007430                     u3061:
  2936   007430  EF3E  F03A         	goto	l777
  2937   007434                     u3060:
  2938   007434                     
  2939                           ; BSR set to: 0
  2940   007434  0EFF               	movlw	255
  2941   007436  1581               	andwf	___fldiv@grs& (0+255),w,b
  2942   007438  6F76               	movwf	??___fldiv& (0+255),b
  2943   00743A  0EFF               	movlw	255
  2944   00743C  1582               	andwf	(___fldiv@grs+1)& (0+255),w,b
  2945   00743E  6F77               	movwf	(??___fldiv+1)& (0+255),b
  2946   007440  0EFF               	movlw	255
  2947   007442  1583               	andwf	(___fldiv@grs+2)& (0+255),w,b
  2948   007444  6F78               	movwf	(??___fldiv+2)& (0+255),b
  2949   007446  0E7F               	movlw	127
  2950   007448  1584               	andwf	(___fldiv@grs+3)& (0+255),w,b
  2951   00744A  6F79               	movwf	(??___fldiv+3)& (0+255),b
  2952   00744C  5176               	movf	??___fldiv& (0+255),w,b
  2953   00744E  1177               	iorwf	(??___fldiv+1)& (0+255),w,b
  2954   007450  1178               	iorwf	(??___fldiv+2)& (0+255),w,b
  2955   007452  1179               	iorwf	(??___fldiv+3)& (0+255),w,b
  2956   007454  B4D8               	btfsc	status,2,c
  2957   007456  EF2F  F03A         	goto	u3071
  2958   00745A  EF31  F03A         	goto	u3070
  2959   00745E                     u3071:
  2960   00745E  EF35  F03A         	goto	l778
  2961   007462                     u3070:
  2962   007462                     l2650:
  2963                           
  2964                           ; BSR set to: 0
  2965   007462  0E01               	movlw	1
  2966   007464  6F86               	movwf	___fldiv@aexp& (0+255),b
  2967   007466  EF3E  F03A         	goto	l777
  2968   00746A                     l778:
  2969                           
  2970                           ; BSR set to: 0
  2971   00746A  A16E               	btfss	___fldiv@b& (0+255),0,b
  2972   00746C  EF3A  F03A         	goto	u3081
  2973   007470  EF3C  F03A         	goto	u3080
  2974   007474                     u3081:
  2975   007474  EF3E  F03A         	goto	l777
  2976   007478                     u3080:
  2977   007478  EF31  F03A         	goto	l2650
  2978   00747C                     l777:
  2979                           
  2980                           ; BSR set to: 0
  2981   00747C  5186               	movf	___fldiv@aexp& (0+255),w,b
  2982   00747E  B4D8               	btfsc	status,2,c
  2983   007480  EF44  F03A         	goto	u3091
  2984   007484  EF46  F03A         	goto	u3090
  2985   007488                     u3091:
  2986   007488  EF6A  F03A         	goto	l2662
  2987   00748C                     u3090:
  2988   00748C                     
  2989                           ; BSR set to: 0
  2990   00748C  0E01               	movlw	1
  2991   00748E  276E               	addwf	___fldiv@b& (0+255),f,b
  2992   007490  0E00               	movlw	0
  2993   007492  236F               	addwfc	(___fldiv@b+1)& (0+255),f,b
  2994   007494  2370               	addwfc	(___fldiv@b+2)& (0+255),f,b
  2995   007496  2371               	addwfc	(___fldiv@b+3)& (0+255),f,b
  2996   007498                     
  2997                           ; BSR set to: 0
  2998   007498  A171               	btfss	(___fldiv@b+3)& (0+255),0,b
  2999   00749A  EF51  F03A         	goto	u3101
  3000   00749E  EF53  F03A         	goto	u3100
  3001   0074A2                     u3101:
  3002   0074A2  EF6A  F03A         	goto	l2662
  3003   0074A6                     u3100:
  3004   0074A6                     
  3005                           ; BSR set to: 0
  3006   0074A6  C06E  F076         	movff	___fldiv@b,??___fldiv
  3007   0074AA  C06F  F077         	movff	___fldiv@b+1,??___fldiv+1
  3008   0074AE  C070  F078         	movff	___fldiv@b+2,??___fldiv+2
  3009   0074B2  C071  F079         	movff	___fldiv@b+3,??___fldiv+3
  3010   0074B6  3579               	rlcf	(??___fldiv+3)& (0+255),w,b
  3011   0074B8  3379               	rrcf	(??___fldiv+3)& (0+255),f,b
  3012   0074BA  3378               	rrcf	(??___fldiv+2)& (0+255),f,b
  3013   0074BC  3377               	rrcf	(??___fldiv+1)& (0+255),f,b
  3014   0074BE  3376               	rrcf	??___fldiv& (0+255),f,b
  3015   0074C0  C076  F06E         	movff	??___fldiv,___fldiv@b
  3016   0074C4  C077  F06F         	movff	??___fldiv+1,___fldiv@b+1
  3017   0074C8  C078  F070         	movff	??___fldiv+2,___fldiv@b+2
  3018   0074CC  C079  F071         	movff	??___fldiv+3,___fldiv@b+3
  3019   0074D0                     
  3020                           ; BSR set to: 0
  3021   0074D0  4B7F               	infsnz	___fldiv@new_exp& (0+255),f,b
  3022   0074D2  2B80               	incf	(___fldiv@new_exp+1)& (0+255),f,b
  3023   0074D4                     l2662:
  3024                           
  3025                           ; BSR set to: 0
  3026   0074D4  BF80               	btfsc	(___fldiv@new_exp+1)& (0+255),7,b
  3027   0074D6  EF75  F03A         	goto	u3111
  3028   0074DA  5180               	movf	(___fldiv@new_exp+1)& (0+255),w,b
  3029   0074DC  E108               	bnz	u3110
  3030   0074DE  297F               	incf	___fldiv@new_exp& (0+255),w,b
  3031   0074E0  A0D8               	btfss	status,0,c
  3032   0074E2  EF75  F03A         	goto	u3111
  3033   0074E6  EF77  F03A         	goto	u3110
  3034   0074EA                     u3111:
  3035   0074EA  EF82  F03A         	goto	l2666
  3036   0074EE                     u3110:
  3037   0074EE                     
  3038                           ; BSR set to: 0
  3039   0074EE  0E00               	movlw	0
  3040   0074F0  6F80               	movwf	(___fldiv@new_exp+1)& (0+255),b
  3041   0074F2  697F               	setf	___fldiv@new_exp& (0+255),b
  3042   0074F4  0E00               	movlw	0
  3043   0074F6  6F6E               	movwf	___fldiv@b& (0+255),b
  3044   0074F8  0E00               	movlw	0
  3045   0074FA  6F6F               	movwf	(___fldiv@b+1)& (0+255),b
  3046   0074FC  0E00               	movlw	0
  3047   0074FE  6F70               	movwf	(___fldiv@b+2)& (0+255),b
  3048   007500  0E00               	movlw	0
  3049   007502  6F71               	movwf	(___fldiv@b+3)& (0+255),b
  3050   007504                     l2666:
  3051                           
  3052                           ; BSR set to: 0
  3053   007504  BF80               	btfsc	(___fldiv@new_exp+1)& (0+255),7,b
  3054   007506  EF8F  F03A         	goto	u3120
  3055   00750A  5180               	movf	(___fldiv@new_exp+1)& (0+255),w,b
  3056   00750C  E106               	bnz	u3121
  3057   00750E  057F               	decf	___fldiv@new_exp& (0+255),w,b
  3058   007510  B0D8               	btfsc	status,0,c
  3059   007512  EF8D  F03A         	goto	u3121
  3060   007516  EF8F  F03A         	goto	u3120
  3061   00751A                     u3121:
  3062   00751A  EF9C  F03A         	goto	l2672
  3063   00751E                     u3120:
  3064   00751E                     
  3065                           ; BSR set to: 0
  3066   00751E  0E00               	movlw	0
  3067   007520  6F80               	movwf	(___fldiv@new_exp+1)& (0+255),b
  3068   007522  0E00               	movlw	0
  3069   007524  6F7F               	movwf	___fldiv@new_exp& (0+255),b
  3070   007526  0E00               	movlw	0
  3071   007528  6F6E               	movwf	___fldiv@b& (0+255),b
  3072   00752A  0E00               	movlw	0
  3073   00752C  6F6F               	movwf	(___fldiv@b+1)& (0+255),b
  3074   00752E  0E00               	movlw	0
  3075   007530  6F70               	movwf	(___fldiv@b+2)& (0+255),b
  3076   007532  0E00               	movlw	0
  3077   007534  6F71               	movwf	(___fldiv@b+3)& (0+255),b
  3078   007536                     
  3079                           ; BSR set to: 0
  3080   007536  6B7E               	clrf	___fldiv@sign& (0+255),b
  3081   007538                     l2672:
  3082                           
  3083                           ; BSR set to: 0
  3084   007538  C07F  F085         	movff	___fldiv@new_exp,___fldiv@bexp
  3085   00753C                     
  3086                           ; BSR set to: 0
  3087   00753C  A185               	btfss	___fldiv@bexp& (0+255),0,b
  3088   00753E  EFA3  F03A         	goto	u3131
  3089   007542  EFA5  F03A         	goto	u3130
  3090   007546                     u3131:
  3091   007546  EFA8  F03A         	goto	l2678
  3092   00754A                     u3130:
  3093   00754A                     
  3094                           ; BSR set to: 0
  3095   00754A  8F70               	bsf	(___fldiv@b+2)& (0+255),7,b
  3096   00754C  EFA9  F03A         	goto	l2680
  3097   007550                     l2678:
  3098                           
  3099                           ; BSR set to: 0
  3100   007550  9F70               	bcf	(___fldiv@b+2)& (0+255),7,b
  3101   007552                     l2680:
  3102                           
  3103                           ; BSR set to: 0
  3104   007552  90D8               	bcf	status,0,c
  3105   007554  3185               	rrcf	___fldiv@bexp& (0+255),w,b
  3106   007556  6F71               	movwf	(___fldiv@b+3)& (0+255),b
  3107   007558  EF62  F039         	goto	l2596
  3108   00755C                     l764:
  3109                           
  3110                           ; BSR set to: 0
  3111   00755C  0012               	return		;funcret
  3112   00755E                     __end_of___fldiv:
  3113                           	callstack 0
  3114                           
  3115 ;; *************** function _displayTemperatura *****************
  3116 ;; Defined at:
  3117 ;;		line 270 in file "main.c"
  3118 ;; Parameters:    Size  Location     Type
  3119 ;;  temp            4   74[BANK0 ] float 
  3120 ;; Auto vars:     Size  Location     Type
  3121 ;;  i               2   90[BANK0 ] int 
  3122 ;;  digitos         6   82[BANK0 ] int [3]
  3123 ;;  inteiro         2   88[BANK0 ] int 
  3124 ;;  decimal         2   80[BANK0 ] int 
  3125 ;; Return value:  Size  Location     Type
  3126 ;;                  1    wreg      void 
  3127 ;; Registers used:
  3128 ;;		wreg, fsr2l, fsr2h, status,2, status,0, tblptrl, tblptrh, tblptru, prodl, prodh, cstack
  3129 ;; Tracked objects:
  3130 ;;		On entry : 0/0
  3131 ;;		On exit  : 0/0
  3132 ;;		Unchanged: 0/0
  3133 ;; Data sizes:     COMRAM   BANK0   BANK1   BANK2   BANK3   BANK4   BANK5
  3134 ;;      Params:         0       4       0       0       0       0       0
  3135 ;;      Locals:         0      12       0       0       0       0       0
  3136 ;;      Temps:          0       2       0       0       0       0       0
  3137 ;;      Totals:         0      18       0       0       0       0       0
  3138 ;;Total ram usage:       18 bytes
  3139 ;; Hardware stack levels used: 1
  3140 ;; Hardware stack levels required when called: 8
  3141 ;; This function calls:
  3142 ;;		___awdiv
  3143 ;;		___awmod
  3144 ;;		___flmul
  3145 ;;		___flsub
  3146 ;;		___fltol
  3147 ;;		___xxtofl
  3148 ;;		_display7Seg
  3149 ;;		_limparDisplay
  3150 ;; This function is called by:
  3151 ;;		_main
  3152 ;; This function uses a non-reentrant model
  3153 ;;
  3154                           
  3155                           	psect	text11
  3156   006996                     __ptext11:
  3157                           	callstack 0
  3158   006996                     _displayTemperatura:
  3159                           	callstack 22
  3160   006996                     
  3161                           ;main.c: 271:     int inteiro = (int)temp;
  3162   006996  C0AA  F0A0         	movff	displayTemperatura@temp,___fltol@f1
  3163   00699A  C0AB  F0A1         	movff	displayTemperatura@temp+1,___fltol@f1+1
  3164   00699E  C0AC  F0A2         	movff	displayTemperatura@temp+2,___fltol@f1+2
  3165   0069A2  C0AD  F0A3         	movff	displayTemperatura@temp+3,___fltol@f1+3
  3166   0069A6  EC7A  F032         	call	___fltol	;wreg free
  3167   0069AA  C0A0  F0B8         	movff	?___fltol,displayTemperatura@inteiro
  3168   0069AE  C0A1  F0B9         	movff	?___fltol+1,displayTemperatura@inteiro+1
  3169   0069B2                     
  3170                           ;main.c: 272:     int decimal = (int)((temp - inteiro) * 10);
  3171   0069B2  0E00               	movlw	0
  3172   0069B4  0100               	movlb	0	; () banked
  3173   0069B6  6F8B               	movwf	___flmul@a& (0+255),b
  3174   0069B8  0E00               	movlw	0
  3175   0069BA  6F8C               	movwf	(___flmul@a+1)& (0+255),b
  3176   0069BC  0E20               	movlw	32
  3177   0069BE  6F8D               	movwf	(___flmul@a+2)& (0+255),b
  3178   0069C0  0E41               	movlw	65
  3179   0069C2  6F8E               	movwf	(___flmul@a+3)& (0+255),b
  3180   0069C4  C0B8  F060         	movff	displayTemperatura@inteiro,___xxtofl@val
  3181   0069C8  C0B9  F061         	movff	displayTemperatura@inteiro+1,___xxtofl@val+1
  3182   0069CC  0E00               	movlw	0
  3183   0069CE  BF61               	btfsc	(___xxtofl@val+1)& (0+255),7,b
  3184   0069D0  0EFF               	movlw	-1
  3185   0069D2  6F62               	movwf	(___xxtofl@val+2)& (0+255),b
  3186   0069D4  6F63               	movwf	(___xxtofl@val+3)& (0+255),b
  3187   0069D6  0E01               	movlw	1
  3188   0069D8  EC98  F035         	call	___xxtofl
  3189   0069DC  C060  F074         	movff	?___xxtofl,___flsub@a
  3190   0069E0  C061  F075         	movff	?___xxtofl+1,___flsub@a+1
  3191   0069E4  C062  F076         	movff	?___xxtofl+2,___flsub@a+2
  3192   0069E8  C063  F077         	movff	?___xxtofl+3,___flsub@a+3
  3193   0069EC  C0AA  F070         	movff	displayTemperatura@temp,___flsub@b
  3194   0069F0  C0AB  F071         	movff	displayTemperatura@temp+1,___flsub@b+1
  3195   0069F4  C0AC  F072         	movff	displayTemperatura@temp+2,___flsub@b+2
  3196   0069F8  C0AD  F073         	movff	displayTemperatura@temp+3,___flsub@b+3
  3197   0069FC  EC27  F02F         	call	___flsub	;wreg free
  3198   006A00  C070  F087         	movff	?___flsub,___flmul@b
  3199   006A04  C071  F088         	movff	?___flsub+1,___flmul@b+1
  3200   006A08  C072  F089         	movff	?___flsub+2,___flmul@b+2
  3201   006A0C  C073  F08A         	movff	?___flsub+3,___flmul@b+3
  3202   006A10  ECAF  F03A         	call	___flmul	;wreg free
  3203   006A14  C087  F0A0         	movff	?___flmul,___fltol@f1
  3204   006A18  C088  F0A1         	movff	?___flmul+1,___fltol@f1+1
  3205   006A1C  C089  F0A2         	movff	?___flmul+2,___fltol@f1+2
  3206   006A20  C08A  F0A3         	movff	?___flmul+3,___fltol@f1+3
  3207   006A24  EC7A  F032         	call	___fltol	;wreg free
  3208   006A28  C0A0  F0B0         	movff	?___fltol,displayTemperatura@decimal
  3209   006A2C  C0A1  F0B1         	movff	?___fltol+1,displayTemperatura@decimal+1
  3210   006A30                     
  3211                           ;main.c: 273:     int digitos[3];;main.c: 274:     digitos[0] = inteiro / 10;
  3212   006A30  C0B8  F060         	movff	displayTemperatura@inteiro,___awdiv@dividend
  3213   006A34  C0B9  F061         	movff	displayTemperatura@inteiro+1,___awdiv@dividend+1
  3214   006A38  0E00               	movlw	0
  3215   006A3A  0100               	movlb	0	; () banked
  3216   006A3C  6F63               	movwf	(___awdiv@divisor+1)& (0+255),b
  3217   006A3E  0E0A               	movlw	10
  3218   006A40  6F62               	movwf	___awdiv@divisor& (0+255),b
  3219   006A42  EC95  F031         	call	___awdiv	;wreg free
  3220   006A46  C060  F0B2         	movff	?___awdiv,displayTemperatura@digitos
  3221   006A4A  C061  F0B3         	movff	?___awdiv+1,displayTemperatura@digitos+1
  3222   006A4E                     
  3223                           ;main.c: 275:     digitos[1] = inteiro % 10;
  3224   006A4E  C0B8  F060         	movff	displayTemperatura@inteiro,___awmod@dividend
  3225   006A52  C0B9  F061         	movff	displayTemperatura@inteiro+1,___awmod@dividend+1
  3226   006A56  0E00               	movlw	0
  3227   006A58  0100               	movlb	0	; () banked
  3228   006A5A  6F63               	movwf	(___awmod@divisor+1)& (0+255),b
  3229   006A5C  0E0A               	movlw	10
  3230   006A5E  6F62               	movwf	___awmod@divisor& (0+255),b
  3231   006A60  ECDC  F030         	call	___awmod	;wreg free
  3232   006A64  C060  F0B4         	movff	?___awmod,displayTemperatura@digitos+2
  3233   006A68  C061  F0B5         	movff	?___awmod+1,displayTemperatura@digitos+3
  3234   006A6C                     
  3235                           ;main.c: 276:     digitos[2] = decimal;
  3236   006A6C  C0B0  F0B6         	movff	displayTemperatura@decimal,displayTemperatura@digitos+4
  3237   006A70  C0B1  F0B7         	movff	displayTemperatura@decimal+1,displayTemperatura@digitos+5
  3238   006A74                     
  3239                           ;main.c: 277:     for (int i = 0; i < 2; i++){
  3240   006A74  0E00               	movlw	0
  3241   006A76  0100               	movlb	0	; () banked
  3242   006A78  6FBB               	movwf	(displayTemperatura@i+1)& (0+255),b
  3243   006A7A  0E00               	movlw	0
  3244   006A7C  6FBA               	movwf	displayTemperatura@i& (0+255),b
  3245   006A7E                     l3078:
  3246                           
  3247                           ; BSR set to: 0
  3248                           ;main.c: 278:         display7Seg(digitos[i]);
  3249   006A7E  51BA               	movf	displayTemperatura@i& (0+255),w,b
  3250   006A80  0D02               	mullw	2
  3251   006A82  50F3               	movf	243,w,c
  3252   006A84  0FB2               	addlw	low displayTemperatura@digitos
  3253   006A86  6ED9               	movwf	fsr2l,c
  3254   006A88  6ADA               	clrf	fsr2h,c
  3255   006A8A  CFDE F060          	movff	postinc2,display7Seg@num
  3256   006A8E  CFDD F061          	movff	postdec2,display7Seg@num+1
  3257   006A92  EC1F  F034         	call	_display7Seg	;wreg free
  3258   006A96                     
  3259                           ;main.c: 279:         if (i == 1){
  3260   006A96  0100               	movlb	0	; () banked
  3261   006A98  05BA               	decf	displayTemperatura@i& (0+255),w,b
  3262   006A9A  11BB               	iorwf	(displayTemperatura@i+1)& (0+255),w,b
  3263   006A9C  A4D8               	btfss	status,2,c
  3264   006A9E  EF53  F035         	goto	u3691
  3265   006AA2  EF55  F035         	goto	u3690
  3266   006AA6                     u3691:
  3267   006AA6  EF56  F035         	goto	l3084
  3268   006AAA                     u3690:
  3269   006AAA                     
  3270                           ; BSR set to: 0
  3271                           ;main.c: 280:             LATEbits.LATE1 = 1;
  3272   006AAA  828D               	bsf	141,1,c	;volatile
  3273   006AAC                     l3084:
  3274                           
  3275                           ; BSR set to: 0
  3276                           ;main.c: 282:         _delay((unsigned long)((1000)*(8000000/4000.0)));
  3277   006AAC  0E0B               	movlw	11
  3278   006AAE  0100               	movlb	0	; () banked
  3279   006AB0  6FAF               	movwf	(??_displayTemperatura+1)& (0+255),b
  3280   006AB2  0E26               	movlw	38
  3281   006AB4  6FAE               	movwf	??_displayTemperatura& (0+255),b
  3282   006AB6  0E5D               	movlw	93
  3283   006AB8                     u4057:
  3284   006AB8  2EE8               	decfsz	wreg,f,c
  3285   006ABA  D7FE               	bra	u4057
  3286   006ABC  2FAE               	decfsz	??_displayTemperatura& (0+255),f,b
  3287   006ABE  D7FC               	bra	u4057
  3288   006AC0  2FAF               	decfsz	(??_displayTemperatura+1)& (0+255),f,b
  3289   006AC2  D7FA               	bra	u4057
  3290   006AC4  D000               	nop2	
  3291   006AC6                     
  3292                           ;main.c: 283:     }
  3293   006AC6  0100               	movlb	0	; () banked
  3294   006AC8  4BBA               	infsnz	displayTemperatura@i& (0+255),f,b
  3295   006ACA  2BBB               	incf	(displayTemperatura@i+1)& (0+255),f,b
  3296   006ACC  BFBB               	btfsc	(displayTemperatura@i+1)& (0+255),7,b
  3297   006ACE  EF72  F035         	goto	u3701
  3298   006AD2  51BB               	movf	(displayTemperatura@i+1)& (0+255),w,b
  3299   006AD4  E109               	bnz	u3700
  3300   006AD6  0E02               	movlw	2
  3301   006AD8  5DBA               	subwf	displayTemperatura@i& (0+255),w,b
  3302   006ADA  A0D8               	btfss	status,0,c
  3303   006ADC  EF72  F035         	goto	u3701
  3304   006AE0  EF74  F035         	goto	u3700
  3305   006AE4                     u3701:
  3306   006AE4  EF3F  F035         	goto	l3078
  3307   006AE8                     u3700:
  3308   006AE8                     
  3309                           ; BSR set to: 0
  3310                           ;main.c: 284:     LATEbits.LATE1 = 0;
  3311   006AE8  928D               	bcf	141,1,c	;volatile
  3312   006AEA                     
  3313                           ; BSR set to: 0
  3314                           ;main.c: 285:     display7Seg(digitos[2]);
  3315   006AEA  C0B6  F060         	movff	displayTemperatura@digitos+4,display7Seg@num
  3316   006AEE  C0B7  F061         	movff	displayTemperatura@digitos+5,display7Seg@num+1
  3317   006AF2  EC1F  F034         	call	_display7Seg	;wreg free
  3318   006AF6                     
  3319                           ;main.c: 286:     _delay((unsigned long)((1000)*(8000000/4000.0)));
  3320   006AF6  0E0B               	movlw	11
  3321   006AF8  0100               	movlb	0	; () banked
  3322   006AFA  6FAF               	movwf	(??_displayTemperatura+1)& (0+255),b
  3323   006AFC  0E26               	movlw	38
  3324   006AFE  6FAE               	movwf	??_displayTemperatura& (0+255),b
  3325   006B00  0E5D               	movlw	93
  3326   006B02                     u4067:
  3327   006B02  2EE8               	decfsz	wreg,f,c
  3328   006B04  D7FE               	bra	u4067
  3329   006B06  2FAE               	decfsz	??_displayTemperatura& (0+255),f,b
  3330   006B08  D7FC               	bra	u4067
  3331   006B0A  2FAF               	decfsz	(??_displayTemperatura+1)& (0+255),f,b
  3332   006B0C  D7FA               	bra	u4067
  3333   006B0E  D000               	nop2	
  3334   006B10                     
  3335                           ;main.c: 287:     limparDisplay();
  3336   006B10  EC2B  F02E         	call	_limparDisplay	;wreg free
  3337   006B14                     
  3338                           ;main.c: 288:     _delay((unsigned long)((500)*(8000000/4000.0)));
  3339   006B14  0E06               	movlw	6
  3340   006B16  0100               	movlb	0	; () banked
  3341   006B18  6FAF               	movwf	(??_displayTemperatura+1)& (0+255),b
  3342   006B1A  0E13               	movlw	19
  3343   006B1C  6FAE               	movwf	??_displayTemperatura& (0+255),b
  3344   006B1E  0EAD               	movlw	173
  3345   006B20                     u4077:
  3346   006B20  2EE8               	decfsz	wreg,f,c
  3347   006B22  D7FE               	bra	u4077
  3348   006B24  2FAE               	decfsz	??_displayTemperatura& (0+255),f,b
  3349   006B26  D7FC               	bra	u4077
  3350   006B28  2FAF               	decfsz	(??_displayTemperatura+1)& (0+255),f,b
  3351   006B2A  D7FA               	bra	u4077
  3352   006B2C  D000               	nop2	
  3353   006B2E  0012               	return		;funcret
  3354   006B30                     __end_of_displayTemperatura:
  3355                           	callstack 0
  3356                           
  3357 ;; *************** function _limparDisplay *****************
  3358 ;; Defined at:
  3359 ;;		line 291 in file "main.c"
  3360 ;; Parameters:    Size  Location     Type
  3361 ;;		None
  3362 ;; Auto vars:     Size  Location     Type
  3363 ;;		None
  3364 ;; Return value:  Size  Location     Type
  3365 ;;                  1    wreg      void 
  3366 ;; Registers used:
  3367 ;;		None
  3368 ;; Tracked objects:
  3369 ;;		On entry : 0/0
  3370 ;;		On exit  : 0/0
  3371 ;;		Unchanged: 0/0
  3372 ;; Data sizes:     COMRAM   BANK0   BANK1   BANK2   BANK3   BANK4   BANK5
  3373 ;;      Params:         0       0       0       0       0       0       0
  3374 ;;      Locals:         0       0       0       0       0       0       0
  3375 ;;      Temps:          0       0       0       0       0       0       0
  3376 ;;      Totals:         0       0       0       0       0       0       0
  3377 ;;Total ram usage:        0 bytes
  3378 ;; Hardware stack levels used: 1
  3379 ;; Hardware stack levels required when called: 6
  3380 ;; This function calls:
  3381 ;;		Nothing
  3382 ;; This function is called by:
  3383 ;;		_displayTemperatura
  3384 ;; This function uses a non-reentrant model
  3385 ;;
  3386                           
  3387                           	psect	text12
  3388   005C56                     __ptext12:
  3389                           	callstack 0
  3390   005C56                     _limparDisplay:
  3391                           	callstack 23
  3392   005C56                     
  3393                           ;main.c: 292:     LATCbits.LATC0 = 0;
  3394   005C56  908B               	bcf	139,0,c	;volatile
  3395                           
  3396                           ;main.c: 293:     LATCbits.LATC1 = 0;
  3397   005C58  928B               	bcf	139,1,c	;volatile
  3398                           
  3399                           ;main.c: 294:     LATCbits.LATC2 = 0;
  3400   005C5A  948B               	bcf	139,2,c	;volatile
  3401                           
  3402                           ;main.c: 295:     LATCbits.LATC3 = 0;
  3403   005C5C  968B               	bcf	139,3,c	;volatile
  3404                           
  3405                           ;main.c: 296:     LATCbits.LATC4 = 0;
  3406   005C5E  988B               	bcf	139,4,c	;volatile
  3407                           
  3408                           ;main.c: 297:     LATCbits.LATC5 = 0;
  3409   005C60  9A8B               	bcf	139,5,c	;volatile
  3410                           
  3411                           ;main.c: 298:     LATEbits.LATE0 = 0;
  3412   005C62  908D               	bcf	141,0,c	;volatile
  3413                           
  3414                           ;main.c: 299:     LATEbits.LATE1 = 0;
  3415   005C64  928D               	bcf	141,1,c	;volatile
  3416   005C66  0012               	return		;funcret
  3417   005C68                     __end_of_limparDisplay:
  3418                           	callstack 0
  3419                           
  3420 ;; *************** function _display7Seg *****************
  3421 ;; Defined at:
  3422 ;;		line 242 in file "main.c"
  3423 ;; Parameters:    Size  Location     Type
  3424 ;;  num             2    0[BANK0 ] int 
  3425 ;; Auto vars:     Size  Location     Type
  3426 ;;  segmentos       1   13[BANK0 ] unsigned char 
  3427 ;;  numeros        10    3[BANK0 ] const unsigned char [10]
  3428 ;; Return value:  Size  Location     Type
  3429 ;;                  1    wreg      void 
  3430 ;; Registers used:
  3431 ;;		wreg, fsr2l, fsr2h, status,2, status,0, tblptrl, tblptrh, tblptru
  3432 ;; Tracked objects:
  3433 ;;		On entry : 0/0
  3434 ;;		On exit  : 0/0
  3435 ;;		Unchanged: 0/0
  3436 ;; Data sizes:     COMRAM   BANK0   BANK1   BANK2   BANK3   BANK4   BANK5
  3437 ;;      Params:         0       2       0       0       0       0       0
  3438 ;;      Locals:         0      11       0       0       0       0       0
  3439 ;;      Temps:          0       1       0       0       0       0       0
  3440 ;;      Totals:         0      14       0       0       0       0       0
  3441 ;;Total ram usage:       14 bytes
  3442 ;; Hardware stack levels used: 1
  3443 ;; Hardware stack levels required when called: 6
  3444 ;; This function calls:
  3445 ;;		Nothing
  3446 ;; This function is called by:
  3447 ;;		_displayTemperatura
  3448 ;; This function uses a non-reentrant model
  3449 ;;
  3450                           
  3451                           	psect	text13
  3452   00683E                     __ptext13:
  3453                           	callstack 0
  3454   00683E                     _display7Seg:
  3455                           	callstack 23
  3456   00683E                     
  3457                           ;main.c: 243:     const unsigned char numeros[10] = {
  3458   00683E  0E3F               	movlw	low display7Seg@F11011
  3459   006840  6EF6               	movwf	tblptrl,c
  3460   006842                     	if	1	;There is more than 1 active tblptr byte
  3461   006842  0E7E               	movlw	high display7Seg@F11011
  3462   006844  6EF7               	movwf	tblptrh,c
  3463   006846                     	endif
  3464   006846                     	if	0	;There are less than 3 active tblptr bytes
  3465   006846                     	endif
  3466   006846  EE20  F063         	lfsr	2,display7Seg@numeros
  3467   00684A  0E09               	movlw	9
  3468   00684C                     u2730:
  3469   00684C  0009               	tblrd		*+
  3470   00684E  CFF5 FFDE          	movff	tablat,postinc2
  3471   006852  06E8               	decf	wreg,f,c
  3472   006854  E2FB               	bc	u2730
  3473   006856                     
  3474                           ;main.c: 255:     if (num < 10){
  3475   006856  0100               	movlb	0	; () banked
  3476   006858  BF61               	btfsc	(display7Seg@num+1)& (0+255),7,b
  3477   00685A  EF3A  F034         	goto	u2740
  3478   00685E  5161               	movf	(display7Seg@num+1)& (0+255),w,b
  3479   006860  E107               	bnz	u2741
  3480   006862  0E0A               	movlw	10
  3481   006864  5D60               	subwf	display7Seg@num& (0+255),w,b
  3482   006866  B0D8               	btfsc	status,0,c
  3483   006868  EF38  F034         	goto	u2741
  3484   00686C  EF3A  F034         	goto	u2740
  3485   006870                     u2741:
  3486   006870  EFCA  F034         	goto	l161
  3487   006874                     u2740:
  3488   006874                     
  3489                           ; BSR set to: 0
  3490                           ;main.c: 256:         unsigned char segmentos = numeros[num];
  3491   006874  5160               	movf	display7Seg@num& (0+255),w,b
  3492   006876  0F63               	addlw	low display7Seg@numeros
  3493   006878  6ED9               	movwf	fsr2l,c
  3494   00687A  6ADA               	clrf	fsr2h,c
  3495   00687C  50DF               	movf	indf2,w,c
  3496   00687E  6F6D               	movwf	display7Seg@segmentos& (0+255),b
  3497   006880                     
  3498                           ; BSR set to: 0
  3499                           ;main.c: 258:         LATCbits.LATC0 = (segmentos & 0x01) ? 1 : 0;
  3500   006880  B16D               	btfsc	display7Seg@segmentos& (0+255),0,b
  3501   006882  EF45  F034         	goto	u2751
  3502   006886  EF49  F034         	goto	u2750
  3503   00688A                     u2751:
  3504   00688A  6B62               	clrf	??_display7Seg& (0+255),b
  3505   00688C  2B62               	incf	??_display7Seg& (0+255),f,b
  3506   00688E  EF4B  F034         	goto	u2768
  3507   006892                     u2750:
  3508   006892  0100               	movlb	0	; () banked
  3509   006894  6B62               	clrf	??_display7Seg& (0+255),b
  3510   006896                     u2768:
  3511   006896  508B               	movf	139,w,c	;volatile
  3512   006898  1962               	xorwf	??_display7Seg& (0+255),w,b
  3513   00689A  0BFE               	andlw	-2
  3514   00689C  1962               	xorwf	??_display7Seg& (0+255),w,b
  3515   00689E  6E8B               	movwf	139,c	;volatile
  3516   0068A0                     
  3517                           ; BSR set to: 0
  3518                           ;main.c: 259:         LATCbits.LATC1 = (segmentos & 0x02) ? 1 : 0;
  3519   0068A0  B36D               	btfsc	display7Seg@segmentos& (0+255),1,b
  3520   0068A2  EF55  F034         	goto	u2771
  3521   0068A6  EF59  F034         	goto	u2770
  3522   0068AA                     u2771:
  3523   0068AA  6B62               	clrf	??_display7Seg& (0+255),b
  3524   0068AC  2B62               	incf	??_display7Seg& (0+255),f,b
  3525   0068AE  EF5B  F034         	goto	u2788
  3526   0068B2                     u2770:
  3527   0068B2  0100               	movlb	0	; () banked
  3528   0068B4  6B62               	clrf	??_display7Seg& (0+255),b
  3529   0068B6                     u2788:
  3530   0068B6  4762               	rlncf	??_display7Seg& (0+255),f,b
  3531   0068B8  508B               	movf	139,w,c	;volatile
  3532   0068BA  1962               	xorwf	??_display7Seg& (0+255),w,b
  3533   0068BC  0BFD               	andlw	-3
  3534   0068BE  1962               	xorwf	??_display7Seg& (0+255),w,b
  3535   0068C0  6E8B               	movwf	139,c	;volatile
  3536   0068C2                     
  3537                           ; BSR set to: 0
  3538                           ;main.c: 260:         LATCbits.LATC2 = (segmentos & 0x04) ? 1 : 0;
  3539   0068C2  B56D               	btfsc	display7Seg@segmentos& (0+255),2,b
  3540   0068C4  EF66  F034         	goto	u2791
  3541   0068C8  EF6A  F034         	goto	u2790
  3542   0068CC                     u2791:
  3543   0068CC  6B62               	clrf	??_display7Seg& (0+255),b
  3544   0068CE  2B62               	incf	??_display7Seg& (0+255),f,b
  3545   0068D0  EF6C  F034         	goto	u2808
  3546   0068D4                     u2790:
  3547   0068D4  0100               	movlb	0	; () banked
  3548   0068D6  6B62               	clrf	??_display7Seg& (0+255),b
  3549   0068D8                     u2808:
  3550   0068D8  4762               	rlncf	??_display7Seg& (0+255),f,b
  3551   0068DA  4762               	rlncf	??_display7Seg& (0+255),f,b
  3552   0068DC  508B               	movf	139,w,c	;volatile
  3553   0068DE  1962               	xorwf	??_display7Seg& (0+255),w,b
  3554   0068E0  0BFB               	andlw	-5
  3555   0068E2  1962               	xorwf	??_display7Seg& (0+255),w,b
  3556   0068E4  6E8B               	movwf	139,c	;volatile
  3557   0068E6                     
  3558                           ; BSR set to: 0
  3559                           ;main.c: 261:         LATCbits.LATC3 = (segmentos & 0x08) ? 1 : 0;
  3560   0068E6  B76D               	btfsc	display7Seg@segmentos& (0+255),3,b
  3561   0068E8  EF78  F034         	goto	u2811
  3562   0068EC  EF7C  F034         	goto	u2810
  3563   0068F0                     u2811:
  3564   0068F0  6B62               	clrf	??_display7Seg& (0+255),b
  3565   0068F2  2B62               	incf	??_display7Seg& (0+255),f,b
  3566   0068F4  EF7E  F034         	goto	u2828
  3567   0068F8                     u2810:
  3568   0068F8  0100               	movlb	0	; () banked
  3569   0068FA  6B62               	clrf	??_display7Seg& (0+255),b
  3570   0068FC                     u2828:
  3571   0068FC  4762               	rlncf	??_display7Seg& (0+255),f,b
  3572   0068FE  4762               	rlncf	??_display7Seg& (0+255),f,b
  3573   006900  4762               	rlncf	??_display7Seg& (0+255),f,b
  3574   006902  508B               	movf	139,w,c	;volatile
  3575   006904  1962               	xorwf	??_display7Seg& (0+255),w,b
  3576   006906  0BF7               	andlw	-9
  3577   006908  1962               	xorwf	??_display7Seg& (0+255),w,b
  3578   00690A  6E8B               	movwf	139,c	;volatile
  3579   00690C                     
  3580                           ; BSR set to: 0
  3581                           ;main.c: 262:         LATCbits.LATC4 = (segmentos & 0x10) ? 1 : 0;
  3582   00690C  B96D               	btfsc	display7Seg@segmentos& (0+255),4,b
  3583   00690E  EF8B  F034         	goto	u2831
  3584   006912  EF8F  F034         	goto	u2830
  3585   006916                     u2831:
  3586   006916  6B62               	clrf	??_display7Seg& (0+255),b
  3587   006918  2B62               	incf	??_display7Seg& (0+255),f,b
  3588   00691A  EF91  F034         	goto	u2848
  3589   00691E                     u2830:
  3590   00691E  0100               	movlb	0	; () banked
  3591   006920  6B62               	clrf	??_display7Seg& (0+255),b
  3592   006922                     u2848:
  3593   006922  3B62               	swapf	??_display7Seg& (0+255),f,b
  3594   006924  508B               	movf	139,w,c	;volatile
  3595   006926  1962               	xorwf	??_display7Seg& (0+255),w,b
  3596   006928  0BEF               	andlw	-17
  3597   00692A  1962               	xorwf	??_display7Seg& (0+255),w,b
  3598   00692C  6E8B               	movwf	139,c	;volatile
  3599   00692E                     
  3600                           ; BSR set to: 0
  3601                           ;main.c: 263:         LATCbits.LATC5 = (segmentos & 0x20) ? 1 : 0;
  3602   00692E  BB6D               	btfsc	display7Seg@segmentos& (0+255),5,b
  3603   006930  EF9C  F034         	goto	u2851
  3604   006934  EFA0  F034         	goto	u2850
  3605   006938                     u2851:
  3606   006938  6B62               	clrf	??_display7Seg& (0+255),b
  3607   00693A  2B62               	incf	??_display7Seg& (0+255),f,b
  3608   00693C  EFA2  F034         	goto	u2868
  3609   006940                     u2850:
  3610   006940  0100               	movlb	0	; () banked
  3611   006942  6B62               	clrf	??_display7Seg& (0+255),b
  3612   006944                     u2868:
  3613   006944  3B62               	swapf	??_display7Seg& (0+255),f,b
  3614   006946  4762               	rlncf	??_display7Seg& (0+255),f,b
  3615   006948  508B               	movf	139,w,c	;volatile
  3616   00694A  1962               	xorwf	??_display7Seg& (0+255),w,b
  3617   00694C  0BDF               	andlw	-33
  3618   00694E  1962               	xorwf	??_display7Seg& (0+255),w,b
  3619   006950  6E8B               	movwf	139,c	;volatile
  3620   006952                     
  3621                           ; BSR set to: 0
  3622                           ;main.c: 264:         LATEbits.LATE0 = (segmentos & 0x40) ? 1 : 0;
  3623   006952  BD6D               	btfsc	display7Seg@segmentos& (0+255),6,b
  3624   006954  EFAE  F034         	goto	u2871
  3625   006958  EFB2  F034         	goto	u2870
  3626   00695C                     u2871:
  3627   00695C  6B62               	clrf	??_display7Seg& (0+255),b
  3628   00695E  2B62               	incf	??_display7Seg& (0+255),f,b
  3629   006960  EFB4  F034         	goto	u2888
  3630   006964                     u2870:
  3631   006964  0100               	movlb	0	; () banked
  3632   006966  6B62               	clrf	??_display7Seg& (0+255),b
  3633   006968                     u2888:
  3634   006968  508D               	movf	141,w,c	;volatile
  3635   00696A  1962               	xorwf	??_display7Seg& (0+255),w,b
  3636   00696C  0BFE               	andlw	-2
  3637   00696E  1962               	xorwf	??_display7Seg& (0+255),w,b
  3638   006970  6E8D               	movwf	141,c	;volatile
  3639   006972                     
  3640                           ; BSR set to: 0
  3641                           ;main.c: 265:         LATEbits.LATE1 = (segmentos & 0x80) ? 1: 0;
  3642   006972  BF6D               	btfsc	display7Seg@segmentos& (0+255),7,b
  3643   006974  EFBE  F034         	goto	u2891
  3644   006978  EFC2  F034         	goto	u2890
  3645   00697C                     u2891:
  3646   00697C  6B62               	clrf	??_display7Seg& (0+255),b
  3647   00697E  2B62               	incf	??_display7Seg& (0+255),f,b
  3648   006980  EFC4  F034         	goto	u2908
  3649   006984                     u2890:
  3650   006984  0100               	movlb	0	; () banked
  3651   006986  6B62               	clrf	??_display7Seg& (0+255),b
  3652   006988                     u2908:
  3653   006988  4762               	rlncf	??_display7Seg& (0+255),f,b
  3654   00698A  508D               	movf	141,w,c	;volatile
  3655   00698C  1962               	xorwf	??_display7Seg& (0+255),w,b
  3656   00698E  0BFD               	andlw	-3
  3657   006990  1962               	xorwf	??_display7Seg& (0+255),w,b
  3658   006992  6E8D               	movwf	141,c	;volatile
  3659   006994                     l161:
  3660                           
  3661                           ; BSR set to: 0
  3662   006994  0012               	return		;funcret
  3663   006996                     __end_of_display7Seg:
  3664                           	callstack 0
  3665                           
  3666 ;; *************** function ___xxtofl *****************
  3667 ;; Defined at:
  3668 ;;		line 10 in file "/opt/microchip/xc8/v3.00/pic/sources/c99/common/xxtofl.c"
  3669 ;; Parameters:    Size  Location     Type
  3670 ;;  sign            1    wreg     unsigned char 
  3671 ;;  val             4    0[BANK0 ] long 
  3672 ;; Auto vars:     Size  Location     Type
  3673 ;;  sign            1    8[BANK0 ] unsigned char 
  3674 ;;  arg             4   10[BANK0 ] unsigned long 
  3675 ;;  exp             1    9[BANK0 ] unsigned char 
  3676 ;; Return value:  Size  Location     Type
  3677 ;;                  4    0[BANK0 ] unsigned char 
  3678 ;; Registers used:
  3679 ;;		wreg, status,2, status,0
  3680 ;; Tracked objects:
  3681 ;;		On entry : 0/0
  3682 ;;		On exit  : 0/0
  3683 ;;		Unchanged: 0/0
  3684 ;; Data sizes:     COMRAM   BANK0   BANK1   BANK2   BANK3   BANK4   BANK5
  3685 ;;      Params:         0       4       0       0       0       0       0
  3686 ;;      Locals:         0       6       0       0       0       0       0
  3687 ;;      Temps:          0       4       0       0       0       0       0
  3688 ;;      Totals:         0      14       0       0       0       0       0
  3689 ;;Total ram usage:       14 bytes
  3690 ;; Hardware stack levels used: 1
  3691 ;; Hardware stack levels required when called: 6
  3692 ;; This function calls:
  3693 ;;		Nothing
  3694 ;; This function is called by:
  3695 ;;		_lerTemperatura
  3696 ;;		_displayTemperatura
  3697 ;; This function uses a non-reentrant model
  3698 ;;
  3699                           
  3700                           	psect	text14
  3701   006B30                     __ptext14:
  3702                           	callstack 0
  3703   006B30                     ___xxtofl:
  3704                           	callstack 23
  3705                           
  3706                           ; BSR set to: 0
  3707                           ;incstack = 0
  3708                           ;___xxtofl@sign stored from wreg
  3709   006B30  0100               	movlb	0	; () banked
  3710   006B32  6F68               	movwf	___xxtofl@sign& (0+255),b
  3711   006B34  0100               	movlb	0	; () banked
  3712   006B36  5168               	movf	___xxtofl@sign& (0+255),w,b
  3713   006B38  B4D8               	btfsc	status,2,c
  3714   006B3A  EFA1  F035         	goto	u3571
  3715   006B3E  EFA3  F035         	goto	u3570
  3716   006B42                     u3571:
  3717   006B42  EFC5  F035         	goto	l837
  3718   006B46                     u3570:
  3719   006B46                     
  3720                           ; BSR set to: 0
  3721   006B46  BF63               	btfsc	(___xxtofl@val+3)& (0+255),7,b
  3722   006B48  EFAA  F035         	goto	u3580
  3723   006B4C  EFA8  F035         	goto	u3581
  3724   006B50                     u3581:
  3725   006B50  EFC5  F035         	goto	l837
  3726   006B54                     u3580:
  3727   006B54                     
  3728                           ; BSR set to: 0
  3729   006B54  C060  F064         	movff	___xxtofl@val,??___xxtofl
  3730   006B58  C061  F065         	movff	___xxtofl@val+1,??___xxtofl+1
  3731   006B5C  C062  F066         	movff	___xxtofl@val+2,??___xxtofl+2
  3732   006B60  C063  F067         	movff	___xxtofl@val+3,??___xxtofl+3
  3733   006B64  1F64               	comf	??___xxtofl& (0+255),f,b
  3734   006B66  1F65               	comf	(??___xxtofl+1)& (0+255),f,b
  3735   006B68  1F66               	comf	(??___xxtofl+2)& (0+255),f,b
  3736   006B6A  1F67               	comf	(??___xxtofl+3)& (0+255),f,b
  3737   006B6C  2B64               	incf	??___xxtofl& (0+255),f,b
  3738   006B6E  0E00               	movlw	0
  3739   006B70  2365               	addwfc	(??___xxtofl+1)& (0+255),f,b
  3740   006B72  2366               	addwfc	(??___xxtofl+2)& (0+255),f,b
  3741   006B74  2367               	addwfc	(??___xxtofl+3)& (0+255),f,b
  3742   006B76  C064  F06A         	movff	??___xxtofl,___xxtofl@arg
  3743   006B7A  C065  F06B         	movff	??___xxtofl+1,___xxtofl@arg+1
  3744   006B7E  C066  F06C         	movff	??___xxtofl+2,___xxtofl@arg+2
  3745   006B82  C067  F06D         	movff	??___xxtofl+3,___xxtofl@arg+3
  3746   006B86  EFCD  F035         	goto	l2974
  3747   006B8A                     l837:
  3748                           
  3749                           ; BSR set to: 0
  3750   006B8A  C060  F06A         	movff	___xxtofl@val,___xxtofl@arg
  3751   006B8E  C061  F06B         	movff	___xxtofl@val+1,___xxtofl@arg+1
  3752   006B92  C062  F06C         	movff	___xxtofl@val+2,___xxtofl@arg+2
  3753   006B96  C063  F06D         	movff	___xxtofl@val+3,___xxtofl@arg+3
  3754   006B9A                     l2974:
  3755                           
  3756                           ; BSR set to: 0
  3757   006B9A  5160               	movf	___xxtofl@val& (0+255),w,b
  3758   006B9C  1161               	iorwf	(___xxtofl@val+1)& (0+255),w,b
  3759   006B9E  1162               	iorwf	(___xxtofl@val+2)& (0+255),w,b
  3760   006BA0  1163               	iorwf	(___xxtofl@val+3)& (0+255),w,b
  3761   006BA2  A4D8               	btfss	status,2,c
  3762   006BA4  EFD6  F035         	goto	u3591
  3763   006BA8  EFD8  F035         	goto	u3590
  3764   006BAC                     u3591:
  3765   006BAC  EFE2  F035         	goto	l2980
  3766   006BB0                     u3590:
  3767   006BB0                     
  3768                           ; BSR set to: 0
  3769   006BB0  0E00               	movlw	0
  3770   006BB2  6F60               	movwf	?___xxtofl& (0+255),b
  3771   006BB4  0E00               	movlw	0
  3772   006BB6  6F61               	movwf	(?___xxtofl+1)& (0+255),b
  3773   006BB8  0E00               	movlw	0
  3774   006BBA  6F62               	movwf	(?___xxtofl+2)& (0+255),b
  3775   006BBC  0E00               	movlw	0
  3776   006BBE  6F63               	movwf	(?___xxtofl+3)& (0+255),b
  3777   006BC0  EF73  F036         	goto	l840
  3778   006BC4                     l2980:
  3779                           
  3780                           ; BSR set to: 0
  3781   006BC4  0E96               	movlw	150
  3782   006BC6  6F69               	movwf	___xxtofl@exp& (0+255),b
  3783   006BC8  EFEC  F035         	goto	l2984
  3784   006BCC                     l2982:
  3785                           
  3786                           ; BSR set to: 0
  3787   006BCC  2B69               	incf	___xxtofl@exp& (0+255),f,b
  3788   006BCE  90D8               	bcf	status,0,c
  3789   006BD0  336D               	rrcf	(___xxtofl@arg+3)& (0+255),f,b
  3790   006BD2  336C               	rrcf	(___xxtofl@arg+2)& (0+255),f,b
  3791   006BD4  336B               	rrcf	(___xxtofl@arg+1)& (0+255),f,b
  3792   006BD6  336A               	rrcf	___xxtofl@arg& (0+255),f,b
  3793   006BD8                     l2984:
  3794                           
  3795                           ; BSR set to: 0
  3796   006BD8  0E00               	movlw	0
  3797   006BDA  156A               	andwf	___xxtofl@arg& (0+255),w,b
  3798   006BDC  6F64               	movwf	??___xxtofl& (0+255),b
  3799   006BDE  0E00               	movlw	0
  3800   006BE0  156B               	andwf	(___xxtofl@arg+1)& (0+255),w,b
  3801   006BE2  6F65               	movwf	(??___xxtofl+1)& (0+255),b
  3802   006BE4  0E00               	movlw	0
  3803   006BE6  156C               	andwf	(___xxtofl@arg+2)& (0+255),w,b
  3804   006BE8  6F66               	movwf	(??___xxtofl+2)& (0+255),b
  3805   006BEA  0EFE               	movlw	254
  3806   006BEC  156D               	andwf	(___xxtofl@arg+3)& (0+255),w,b
  3807   006BEE  6F67               	movwf	(??___xxtofl+3)& (0+255),b
  3808   006BF0  5164               	movf	??___xxtofl& (0+255),w,b
  3809   006BF2  1165               	iorwf	(??___xxtofl+1)& (0+255),w,b
  3810   006BF4  1166               	iorwf	(??___xxtofl+2)& (0+255),w,b
  3811   006BF6  1167               	iorwf	(??___xxtofl+3)& (0+255),w,b
  3812   006BF8  A4D8               	btfss	status,2,c
  3813   006BFA  EF01  F036         	goto	u3601
  3814   006BFE  EF03  F036         	goto	u3600
  3815   006C02                     u3601:
  3816   006C02  EFE6  F035         	goto	l2982
  3817   006C06                     u3600:
  3818   006C06  EF11  F036         	goto	l844
  3819   006C0A                     l2986:
  3820                           
  3821                           ; BSR set to: 0
  3822   006C0A  2B69               	incf	___xxtofl@exp& (0+255),f,b
  3823   006C0C                     
  3824                           ; BSR set to: 0
  3825   006C0C  0E01               	movlw	1
  3826   006C0E  276A               	addwf	___xxtofl@arg& (0+255),f,b
  3827   006C10  0E00               	movlw	0
  3828   006C12  236B               	addwfc	(___xxtofl@arg+1)& (0+255),f,b
  3829   006C14  236C               	addwfc	(___xxtofl@arg+2)& (0+255),f,b
  3830   006C16  236D               	addwfc	(___xxtofl@arg+3)& (0+255),f,b
  3831   006C18                     
  3832                           ; BSR set to: 0
  3833   006C18  90D8               	bcf	status,0,c
  3834   006C1A  336D               	rrcf	(___xxtofl@arg+3)& (0+255),f,b
  3835   006C1C  336C               	rrcf	(___xxtofl@arg+2)& (0+255),f,b
  3836   006C1E  336B               	rrcf	(___xxtofl@arg+1)& (0+255),f,b
  3837   006C20  336A               	rrcf	___xxtofl@arg& (0+255),f,b
  3838   006C22                     l844:
  3839                           
  3840                           ; BSR set to: 0
  3841   006C22  0E00               	movlw	0
  3842   006C24  156A               	andwf	___xxtofl@arg& (0+255),w,b
  3843   006C26  6F64               	movwf	??___xxtofl& (0+255),b
  3844   006C28  0E00               	movlw	0
  3845   006C2A  156B               	andwf	(___xxtofl@arg+1)& (0+255),w,b
  3846   006C2C  6F65               	movwf	(??___xxtofl+1)& (0+255),b
  3847   006C2E  0E00               	movlw	0
  3848   006C30  156C               	andwf	(___xxtofl@arg+2)& (0+255),w,b
  3849   006C32  6F66               	movwf	(??___xxtofl+2)& (0+255),b
  3850   006C34  0EFF               	movlw	255
  3851   006C36  156D               	andwf	(___xxtofl@arg+3)& (0+255),w,b
  3852   006C38  6F67               	movwf	(??___xxtofl+3)& (0+255),b
  3853   006C3A  5164               	movf	??___xxtofl& (0+255),w,b
  3854   006C3C  1165               	iorwf	(??___xxtofl+1)& (0+255),w,b
  3855   006C3E  1166               	iorwf	(??___xxtofl+2)& (0+255),w,b
  3856   006C40  1167               	iorwf	(??___xxtofl+3)& (0+255),w,b
  3857   006C42  A4D8               	btfss	status,2,c
  3858   006C44  EF26  F036         	goto	u3611
  3859   006C48  EF28  F036         	goto	u3610
  3860   006C4C                     u3611:
  3861   006C4C  EF05  F036         	goto	l2986
  3862   006C50                     u3610:
  3863   006C50  EF30  F036         	goto	l2994
  3864   006C54                     l2992:
  3865                           
  3866                           ; BSR set to: 0
  3867   006C54  0769               	decf	___xxtofl@exp& (0+255),f,b
  3868   006C56  90D8               	bcf	status,0,c
  3869   006C58  376A               	rlcf	___xxtofl@arg& (0+255),f,b
  3870   006C5A  376B               	rlcf	(___xxtofl@arg+1)& (0+255),f,b
  3871   006C5C  376C               	rlcf	(___xxtofl@arg+2)& (0+255),f,b
  3872   006C5E  376D               	rlcf	(___xxtofl@arg+3)& (0+255),f,b
  3873   006C60                     l2994:
  3874                           
  3875                           ; BSR set to: 0
  3876   006C60  BF6C               	btfsc	(___xxtofl@arg+2)& (0+255),7,b
  3877   006C62  EF35  F036         	goto	u3621
  3878   006C66  EF37  F036         	goto	u3620
  3879   006C6A                     u3621:
  3880   006C6A  EF3F  F036         	goto	l851
  3881   006C6E                     u3620:
  3882   006C6E                     
  3883                           ; BSR set to: 0
  3884   006C6E  0E02               	movlw	2
  3885   006C70  6169               	cpfslt	___xxtofl@exp& (0+255),b
  3886   006C72  EF3D  F036         	goto	u3631
  3887   006C76  EF3F  F036         	goto	u3630
  3888   006C7A                     u3631:
  3889   006C7A  EF2A  F036         	goto	l2992
  3890   006C7E                     u3630:
  3891   006C7E                     l851:
  3892                           
  3893                           ; BSR set to: 0
  3894   006C7E  B169               	btfsc	___xxtofl@exp& (0+255),0,b
  3895   006C80  EF44  F036         	goto	u3641
  3896   006C84  EF46  F036         	goto	u3640
  3897   006C88                     u3641:
  3898   006C88  EF47  F036         	goto	l3000
  3899   006C8C                     u3640:
  3900   006C8C                     
  3901                           ; BSR set to: 0
  3902   006C8C  9F6C               	bcf	(___xxtofl@arg+2)& (0+255),7,b
  3903   006C8E                     l3000:
  3904                           
  3905                           ; BSR set to: 0
  3906   006C8E  90D8               	bcf	status,0,c
  3907   006C90  3369               	rrcf	___xxtofl@exp& (0+255),f,b
  3908   006C92                     
  3909                           ; BSR set to: 0
  3910   006C92  C069  F064         	movff	___xxtofl@exp,??___xxtofl
  3911   006C96  6B65               	clrf	(??___xxtofl+1)& (0+255),b
  3912   006C98  6B66               	clrf	(??___xxtofl+2)& (0+255),b
  3913   006C9A  6B67               	clrf	(??___xxtofl+3)& (0+255),b
  3914   006C9C  C064  F067         	movff	??___xxtofl,??___xxtofl+3
  3915   006CA0  6B66               	clrf	(??___xxtofl+2)& (0+255),b
  3916   006CA2  6B65               	clrf	(??___xxtofl+1)& (0+255),b
  3917   006CA4  6B64               	clrf	??___xxtofl& (0+255),b
  3918   006CA6  5164               	movf	??___xxtofl& (0+255),w,b
  3919   006CA8  136A               	iorwf	___xxtofl@arg& (0+255),f,b
  3920   006CAA  5165               	movf	(??___xxtofl+1)& (0+255),w,b
  3921   006CAC  136B               	iorwf	(___xxtofl@arg+1)& (0+255),f,b
  3922   006CAE  5166               	movf	(??___xxtofl+2)& (0+255),w,b
  3923   006CB0  136C               	iorwf	(___xxtofl@arg+2)& (0+255),f,b
  3924   006CB2  5167               	movf	(??___xxtofl+3)& (0+255),w,b
  3925   006CB4  136D               	iorwf	(___xxtofl@arg+3)& (0+255),f,b
  3926   006CB6                     
  3927                           ; BSR set to: 0
  3928   006CB6  5168               	movf	___xxtofl@sign& (0+255),w,b
  3929   006CB8  B4D8               	btfsc	status,2,c
  3930   006CBA  EF61  F036         	goto	u3651
  3931   006CBE  EF63  F036         	goto	u3650
  3932   006CC2                     u3651:
  3933   006CC2  EF6B  F036         	goto	l3010
  3934   006CC6                     u3650:
  3935   006CC6                     
  3936                           ; BSR set to: 0
  3937   006CC6  BF63               	btfsc	(___xxtofl@val+3)& (0+255),7,b
  3938   006CC8  EF6A  F036         	goto	u3660
  3939   006CCC  EF68  F036         	goto	u3661
  3940   006CD0                     u3661:
  3941   006CD0  EF6B  F036         	goto	l3010
  3942   006CD4                     u3660:
  3943   006CD4                     
  3944                           ; BSR set to: 0
  3945   006CD4  8F6D               	bsf	(___xxtofl@arg+3)& (0+255),7,b
  3946   006CD6                     l3010:
  3947                           
  3948                           ; BSR set to: 0
  3949   006CD6  C06A  F060         	movff	___xxtofl@arg,?___xxtofl
  3950   006CDA  C06B  F061         	movff	___xxtofl@arg+1,?___xxtofl+1
  3951   006CDE  C06C  F062         	movff	___xxtofl@arg+2,?___xxtofl+2
  3952   006CE2  C06D  F063         	movff	___xxtofl@arg+3,?___xxtofl+3
  3953   006CE6                     l840:
  3954                           
  3955                           ; BSR set to: 0
  3956   006CE6  0012               	return		;funcret
  3957   006CE8                     __end_of___xxtofl:
  3958                           	callstack 0
  3959                           
  3960 ;; *************** function ___fltol *****************
  3961 ;; Defined at:
  3962 ;;		line 43 in file "/opt/microchip/xc8/v3.00/pic/sources/c99/common/fltol.c"
  3963 ;; Parameters:    Size  Location     Type
  3964 ;;  f1              4   64[BANK0 ] unsigned char 
  3965 ;; Auto vars:     Size  Location     Type
  3966 ;;  exp1            1   73[BANK0 ] unsigned char 
  3967 ;;  sign1           1   72[BANK0 ] unsigned char 
  3968 ;; Return value:  Size  Location     Type
  3969 ;;                  4   64[BANK0 ] long 
  3970 ;; Registers used:
  3971 ;;		wreg, status,2, status,0
  3972 ;; Tracked objects:
  3973 ;;		On entry : 0/0
  3974 ;;		On exit  : 0/0
  3975 ;;		Unchanged: 0/0
  3976 ;; Data sizes:     COMRAM   BANK0   BANK1   BANK2   BANK3   BANK4   BANK5
  3977 ;;      Params:         0       4       0       0       0       0       0
  3978 ;;      Locals:         0       2       0       0       0       0       0
  3979 ;;      Temps:          0       4       0       0       0       0       0
  3980 ;;      Totals:         0      10       0       0       0       0       0
  3981 ;;Total ram usage:       10 bytes
  3982 ;; Hardware stack levels used: 1
  3983 ;; Hardware stack levels required when called: 6
  3984 ;; This function calls:
  3985 ;;		Nothing
  3986 ;; This function is called by:
  3987 ;;		_displayTemperatura
  3988 ;; This function uses a non-reentrant model
  3989 ;;
  3990                           
  3991                           	psect	text15
  3992   0064F4                     __ptext15:
  3993                           	callstack 0
  3994   0064F4                     ___fltol:
  3995                           	callstack 23
  3996   0064F4  0100               	movlb	0	; () banked
  3997   0064F6  35A2               	rlcf	(___fltol@f1+2)& (0+255),w,b
  3998   0064F8  35A3               	rlcf	(___fltol@f1+3)& (0+255),w,b
  3999   0064FA  6FA9               	movwf	___fltol@exp1& (0+255),b
  4000   0064FC  51A9               	movf	___fltol@exp1& (0+255),w,b
  4001   0064FE  A4D8               	btfss	status,2,c
  4002   006500  EF84  F032         	goto	u3501
  4003   006504  EF86  F032         	goto	u3500
  4004   006508                     u3501:
  4005   006508  EF90  F032         	goto	l2930
  4006   00650C                     u3500:
  4007   00650C                     l2926:
  4008                           
  4009                           ; BSR set to: 0
  4010   00650C  0E00               	movlw	0
  4011   00650E  6FA0               	movwf	?___fltol& (0+255),b
  4012   006510  0E00               	movlw	0
  4013   006512  6FA1               	movwf	(?___fltol+1)& (0+255),b
  4014   006514  0E00               	movlw	0
  4015   006516  6FA2               	movwf	(?___fltol+2)& (0+255),b
  4016   006518  0E00               	movlw	0
  4017   00651A  6FA3               	movwf	(?___fltol+3)& (0+255),b
  4018   00651C  EFFD  F032         	goto	l479
  4019   006520                     l2930:
  4020                           
  4021                           ; BSR set to: 0
  4022   006520  C0A0  F0A4         	movff	___fltol@f1,??___fltol
  4023   006524  C0A1  F0A5         	movff	___fltol@f1+1,??___fltol+1
  4024   006528  C0A2  F0A6         	movff	___fltol@f1+2,??___fltol+2
  4025   00652C  C0A3  F0A7         	movff	___fltol@f1+3,??___fltol+3
  4026   006530  0E20               	movlw	32
  4027   006532  EFA0  F032         	goto	u3510
  4028   006536                     u3515:
  4029   006536  90D8               	bcf	status,0,c
  4030   006538  33A7               	rrcf	(??___fltol+3)& (0+255),f,b
  4031   00653A  33A6               	rrcf	(??___fltol+2)& (0+255),f,b
  4032   00653C  33A5               	rrcf	(??___fltol+1)& (0+255),f,b
  4033   00653E  33A4               	rrcf	??___fltol& (0+255),f,b
  4034   006540                     u3510:
  4035   006540  2EE8               	decfsz	wreg,f,c
  4036   006542  EF9B  F032         	goto	u3515
  4037   006546  51A4               	movf	??___fltol& (0+255),w,b
  4038   006548  6FA8               	movwf	___fltol@sign1& (0+255),b
  4039   00654A                     
  4040                           ; BSR set to: 0
  4041   00654A  8FA2               	bsf	(___fltol@f1+2)& (0+255),7,b
  4042   00654C                     
  4043                           ; BSR set to: 0
  4044   00654C  0EFF               	movlw	255
  4045   00654E  17A0               	andwf	___fltol@f1& (0+255),f,b
  4046   006550  0EFF               	movlw	255
  4047   006552  17A1               	andwf	(___fltol@f1+1)& (0+255),f,b
  4048   006554  0EFF               	movlw	255
  4049   006556  17A2               	andwf	(___fltol@f1+2)& (0+255),f,b
  4050   006558  0E00               	movlw	0
  4051   00655A  17A3               	andwf	(___fltol@f1+3)& (0+255),f,b
  4052   00655C                     
  4053                           ; BSR set to: 0
  4054   00655C  0E96               	movlw	150
  4055   00655E  5FA9               	subwf	___fltol@exp1& (0+255),f,b
  4056   006560                     
  4057                           ; BSR set to: 0
  4058   006560  BFA9               	btfsc	___fltol@exp1& (0+255),7,b
  4059   006562  EFB7  F032         	goto	u3520
  4060   006566  EFB5  F032         	goto	u3521
  4061   00656A                     u3521:
  4062   00656A  EFCD  F032         	goto	l2950
  4063   00656E                     u3520:
  4064   00656E                     
  4065                           ; BSR set to: 0
  4066   00656E  51A9               	movf	___fltol@exp1& (0+255),w,b
  4067   006570  0A80               	xorlw	128
  4068   006572  0F97               	addlw	151
  4069   006574  B0D8               	btfsc	status,0,c
  4070   006576  EFBF  F032         	goto	u3531
  4071   00657A  EFC1  F032         	goto	u3530
  4072   00657E                     u3531:
  4073   00657E  EFC3  F032         	goto	l2946
  4074   006582                     u3530:
  4075   006582  EF86  F032         	goto	l2926
  4076   006586                     l2946:
  4077                           
  4078                           ; BSR set to: 0
  4079   006586  90D8               	bcf	status,0,c
  4080   006588  33A3               	rrcf	(___fltol@f1+3)& (0+255),f,b
  4081   00658A  33A2               	rrcf	(___fltol@f1+2)& (0+255),f,b
  4082   00658C  33A1               	rrcf	(___fltol@f1+1)& (0+255),f,b
  4083   00658E  33A0               	rrcf	___fltol@f1& (0+255),f,b
  4084   006590                     
  4085                           ; BSR set to: 0
  4086   006590  3FA9               	incfsz	___fltol@exp1& (0+255),f,b
  4087   006592  EFC3  F032         	goto	l2946
  4088   006596  EFE5  F032         	goto	l2960
  4089   00659A                     l2950:
  4090                           
  4091                           ; BSR set to: 0
  4092   00659A  0E1F               	movlw	31
  4093   00659C  65A9               	cpfsgt	___fltol@exp1& (0+255),b
  4094   00659E  EFD3  F032         	goto	u3541
  4095   0065A2  EFD5  F032         	goto	u3540
  4096   0065A6                     u3541:
  4097   0065A6  EFDD  F032         	goto	l2958
  4098   0065AA                     u3540:
  4099   0065AA  EF86  F032         	goto	l2926
  4100   0065AE                     l2956:
  4101                           
  4102                           ; BSR set to: 0
  4103   0065AE  90D8               	bcf	status,0,c
  4104   0065B0  37A0               	rlcf	___fltol@f1& (0+255),f,b
  4105   0065B2  37A1               	rlcf	(___fltol@f1+1)& (0+255),f,b
  4106   0065B4  37A2               	rlcf	(___fltol@f1+2)& (0+255),f,b
  4107   0065B6  37A3               	rlcf	(___fltol@f1+3)& (0+255),f,b
  4108   0065B8  07A9               	decf	___fltol@exp1& (0+255),f,b
  4109   0065BA                     l2958:
  4110                           
  4111                           ; BSR set to: 0
  4112   0065BA  51A9               	movf	___fltol@exp1& (0+255),w,b
  4113   0065BC  A4D8               	btfss	status,2,c
  4114   0065BE  EFE3  F032         	goto	u3551
  4115   0065C2  EFE5  F032         	goto	u3550
  4116   0065C6                     u3551:
  4117   0065C6  EFD7  F032         	goto	l2956
  4118   0065CA                     u3550:
  4119   0065CA                     l2960:
  4120                           
  4121                           ; BSR set to: 0
  4122   0065CA  51A8               	movf	___fltol@sign1& (0+255),w,b
  4123   0065CC  B4D8               	btfsc	status,2,c
  4124   0065CE  EFEB  F032         	goto	u3561
  4125   0065D2  EFED  F032         	goto	u3560
  4126   0065D6                     u3561:
  4127   0065D6  EFF5  F032         	goto	l2964
  4128   0065DA                     u3560:
  4129   0065DA                     
  4130                           ; BSR set to: 0
  4131   0065DA  1FA3               	comf	(___fltol@f1+3)& (0+255),f,b
  4132   0065DC  1FA2               	comf	(___fltol@f1+2)& (0+255),f,b
  4133   0065DE  1FA1               	comf	(___fltol@f1+1)& (0+255),f,b
  4134   0065E0  6DA0               	negf	___fltol@f1& (0+255),b
  4135   0065E2  0E00               	movlw	0
  4136   0065E4  23A1               	addwfc	(___fltol@f1+1)& (0+255),f,b
  4137   0065E6  23A2               	addwfc	(___fltol@f1+2)& (0+255),f,b
  4138   0065E8  23A3               	addwfc	(___fltol@f1+3)& (0+255),f,b
  4139   0065EA                     l2964:
  4140                           
  4141                           ; BSR set to: 0
  4142   0065EA  C0A0  F0A0         	movff	___fltol@f1,?___fltol
  4143   0065EE  C0A1  F0A1         	movff	___fltol@f1+1,?___fltol+1
  4144   0065F2  C0A2  F0A2         	movff	___fltol@f1+2,?___fltol+2
  4145   0065F6  C0A3  F0A3         	movff	___fltol@f1+3,?___fltol+3
  4146   0065FA                     l479:
  4147                           
  4148                           ; BSR set to: 0
  4149   0065FA  0012               	return		;funcret
  4150   0065FC                     __end_of___fltol:
  4151                           	callstack 0
  4152                           
  4153 ;; *************** function ___flsub *****************
  4154 ;; Defined at:
  4155 ;;		line 245 in file "/opt/microchip/xc8/v3.00/pic/sources/c99/common/sprcadd.c"
  4156 ;; Parameters:    Size  Location     Type
  4157 ;;  b               4   16[BANK0 ] long 
  4158 ;;  a               4   20[BANK0 ] long 
  4159 ;; Auto vars:     Size  Location     Type
  4160 ;;		None
  4161 ;; Return value:  Size  Location     Type
  4162 ;;                  4   16[BANK0 ] long 
  4163 ;; Registers used:
  4164 ;;		wreg, status,2, status,0, cstack
  4165 ;; Tracked objects:
  4166 ;;		On entry : 0/0
  4167 ;;		On exit  : 0/0
  4168 ;;		Unchanged: 0/0
  4169 ;; Data sizes:     COMRAM   BANK0   BANK1   BANK2   BANK3   BANK4   BANK5
  4170 ;;      Params:         0       8       0       0       0       0       0
  4171 ;;      Locals:         0       0       0       0       0       0       0
  4172 ;;      Temps:          0       0       0       0       0       0       0
  4173 ;;      Totals:         0       8       0       0       0       0       0
  4174 ;;Total ram usage:        8 bytes
  4175 ;; Hardware stack levels used: 1
  4176 ;; Hardware stack levels required when called: 7
  4177 ;; This function calls:
  4178 ;;		___fladd
  4179 ;; This function is called by:
  4180 ;;		_displayTemperatura
  4181 ;; This function uses a non-reentrant model
  4182 ;;
  4183                           
  4184                           	psect	text16
  4185   005E4E                     __ptext16:
  4186                           	callstack 0
  4187   005E4E                     ___flsub:
  4188                           	callstack 22
  4189   005E4E  0E00               	movlw	0
  4190   005E50  0100               	movlb	0	; () banked
  4191   005E52  1B74               	xorwf	___flsub@a& (0+255),f,b
  4192   005E54  0E00               	movlw	0
  4193   005E56  1B75               	xorwf	(___flsub@a+1)& (0+255),f,b
  4194   005E58  0E00               	movlw	0
  4195   005E5A  1B76               	xorwf	(___flsub@a+2)& (0+255),f,b
  4196   005E5C  0E80               	movlw	128
  4197   005E5E  1B77               	xorwf	(___flsub@a+3)& (0+255),f,b
  4198   005E60                     
  4199                           ; BSR set to: 0
  4200   005E60  C070  F060         	movff	___flsub@b,___fladd@b
  4201   005E64  C071  F061         	movff	___flsub@b+1,___fladd@b+1
  4202   005E68  C072  F062         	movff	___flsub@b+2,___fladd@b+2
  4203   005E6C  C073  F063         	movff	___flsub@b+3,___fladd@b+3
  4204   005E70  C074  F064         	movff	___flsub@a,___fladd@a
  4205   005E74  C075  F065         	movff	___flsub@a+1,___fladd@a+1
  4206   005E78  C076  F066         	movff	___flsub@a+2,___fladd@a+2
  4207   005E7C  C077  F067         	movff	___flsub@a+3,___fladd@a+3
  4208   005E80  ECC3  F03C         	call	___fladd	;wreg free
  4209   005E84  C060  F070         	movff	?___fladd,?___flsub
  4210   005E88  C061  F071         	movff	?___fladd+1,?___flsub+1
  4211   005E8C  C062  F072         	movff	?___fladd+2,?___flsub+2
  4212   005E90  C063  F073         	movff	?___fladd+3,?___flsub+3
  4213   005E94  0012               	return		;funcret
  4214   005E96                     __end_of___flsub:
  4215                           	callstack 0
  4216                           
  4217 ;; *************** function ___fladd *****************
  4218 ;; Defined at:
  4219 ;;		line 10 in file "/opt/microchip/xc8/v3.00/pic/sources/c99/common/sprcadd.c"
  4220 ;; Parameters:    Size  Location     Type
  4221 ;;  b               4    0[BANK0 ] long 
  4222 ;;  a               4    4[BANK0 ] long 
  4223 ;; Auto vars:     Size  Location     Type
  4224 ;;  grs             1   15[BANK0 ] unsigned char 
  4225 ;;  bexp            1   14[BANK0 ] unsigned char 
  4226 ;;  aexp            1   13[BANK0 ] unsigned char 
  4227 ;;  signs           1   12[BANK0 ] unsigned char 
  4228 ;; Return value:  Size  Location     Type
  4229 ;;                  4    0[BANK0 ] unsigned char 
  4230 ;; Registers used:
  4231 ;;		wreg, status,2, status,0
  4232 ;; Tracked objects:
  4233 ;;		On entry : 0/0
  4234 ;;		On exit  : 0/0
  4235 ;;		Unchanged: 0/0
  4236 ;; Data sizes:     COMRAM   BANK0   BANK1   BANK2   BANK3   BANK4   BANK5
  4237 ;;      Params:         0       8       0       0       0       0       0
  4238 ;;      Locals:         0       4       0       0       0       0       0
  4239 ;;      Temps:          0       4       0       0       0       0       0
  4240 ;;      Totals:         0      16       0       0       0       0       0
  4241 ;;Total ram usage:       16 bytes
  4242 ;; Hardware stack levels used: 1
  4243 ;; Hardware stack levels required when called: 6
  4244 ;; This function calls:
  4245 ;;		Nothing
  4246 ;; This function is called by:
  4247 ;;		___flsub
  4248 ;; This function uses a non-reentrant model
  4249 ;;
  4250                           
  4251                           	psect	text17
  4252   007986                     __ptext17:
  4253                           	callstack 0
  4254   007986                     ___fladd:
  4255                           	callstack 22
  4256   007986  0100               	movlb	0	; () banked
  4257   007988  5163               	movf	(___fladd@b+3)& (0+255),w,b
  4258   00798A  0B80               	andlw	128
  4259   00798C  6F6C               	movwf	___fladd@signs& (0+255),b
  4260   00798E  5163               	movf	(___fladd@b+3)& (0+255),w,b
  4261   007990  2563               	addwf	(___fladd@b+3)& (0+255),w,b
  4262   007992  6F6E               	movwf	___fladd@bexp& (0+255),b
  4263   007994                     
  4264                           ; BSR set to: 0
  4265   007994  AF62               	btfss	(___fladd@b+2)& (0+255),7,b
  4266   007996  EFCF  F03C         	goto	u2211
  4267   00799A  EFD1  F03C         	goto	u2210
  4268   00799E                     u2211:
  4269   00799E  EFD2  F03C         	goto	l2242
  4270   0079A2                     u2210:
  4271   0079A2                     
  4272                           ; BSR set to: 0
  4273   0079A2  816E               	bsf	___fladd@bexp& (0+255),0,b
  4274   0079A4                     l2242:
  4275                           
  4276                           ; BSR set to: 0
  4277   0079A4  516E               	movf	___fladd@bexp& (0+255),w,b
  4278   0079A6  B4D8               	btfsc	status,2,c
  4279   0079A8  EFD8  F03C         	goto	u2221
  4280   0079AC  EFDA  F03C         	goto	u2220
  4281   0079B0                     u2221:
  4282   0079B0  EFEE  F03C         	goto	l2252
  4283   0079B4                     u2220:
  4284   0079B4                     
  4285                           ; BSR set to: 0
  4286   0079B4  296E               	incf	___fladd@bexp& (0+255),w,b
  4287   0079B6  A4D8               	btfss	status,2,c
  4288   0079B8  EFE0  F03C         	goto	u2231
  4289   0079BC  EFE2  F03C         	goto	u2230
  4290   0079C0                     u2231:
  4291   0079C0  EFEA  F03C         	goto	l2248
  4292   0079C4                     u2230:
  4293   0079C4                     
  4294                           ; BSR set to: 0
  4295   0079C4  0E00               	movlw	0
  4296   0079C6  6F60               	movwf	___fladd@b& (0+255),b
  4297   0079C8  0E00               	movlw	0
  4298   0079CA  6F61               	movwf	(___fladd@b+1)& (0+255),b
  4299   0079CC  0E00               	movlw	0
  4300   0079CE  6F62               	movwf	(___fladd@b+2)& (0+255),b
  4301   0079D0  0E00               	movlw	0
  4302   0079D2  6F63               	movwf	(___fladd@b+3)& (0+255),b
  4303   0079D4                     l2248:
  4304                           
  4305                           ; BSR set to: 0
  4306   0079D4  8F62               	bsf	(___fladd@b+2)& (0+255),7,b
  4307   0079D6                     
  4308                           ; BSR set to: 0
  4309   0079D6  6B63               	clrf	(___fladd@b+3)& (0+255),b
  4310   0079D8  EFF6  F03C         	goto	l2254
  4311   0079DC                     l2252:
  4312                           
  4313                           ; BSR set to: 0
  4314   0079DC  0E00               	movlw	0
  4315   0079DE  6F60               	movwf	___fladd@b& (0+255),b
  4316   0079E0  0E00               	movlw	0
  4317   0079E2  6F61               	movwf	(___fladd@b+1)& (0+255),b
  4318   0079E4  0E00               	movlw	0
  4319   0079E6  6F62               	movwf	(___fladd@b+2)& (0+255),b
  4320   0079E8  0E00               	movlw	0
  4321   0079EA  6F63               	movwf	(___fladd@b+3)& (0+255),b
  4322   0079EC                     l2254:
  4323                           
  4324                           ; BSR set to: 0
  4325   0079EC  5167               	movf	(___fladd@a+3)& (0+255),w,b
  4326   0079EE  0B80               	andlw	128
  4327   0079F0  6F6D               	movwf	___fladd@aexp& (0+255),b
  4328   0079F2                     
  4329                           ; BSR set to: 0
  4330   0079F2  516C               	movf	___fladd@signs& (0+255),w,b
  4331   0079F4  196D               	xorwf	___fladd@aexp& (0+255),w,b
  4332   0079F6  B4D8               	btfsc	status,2,c
  4333   0079F8  EF00  F03D         	goto	u2241
  4334   0079FC  EF02  F03D         	goto	u2240
  4335   007A00                     u2241:
  4336   007A00  EF03  F03D         	goto	l2260
  4337   007A04                     u2240:
  4338   007A04                     
  4339                           ; BSR set to: 0
  4340   007A04  8D6C               	bsf	___fladd@signs& (0+255),6,b
  4341   007A06                     l2260:
  4342                           
  4343                           ; BSR set to: 0
  4344   007A06  5167               	movf	(___fladd@a+3)& (0+255),w,b
  4345   007A08  2567               	addwf	(___fladd@a+3)& (0+255),w,b
  4346   007A0A  6F6D               	movwf	___fladd@aexp& (0+255),b
  4347   007A0C                     
  4348                           ; BSR set to: 0
  4349   007A0C  AF66               	btfss	(___fladd@a+2)& (0+255),7,b
  4350   007A0E  EF0B  F03D         	goto	u2251
  4351   007A12  EF0D  F03D         	goto	u2250
  4352   007A16                     u2251:
  4353   007A16  EF0E  F03D         	goto	l2266
  4354   007A1A                     u2250:
  4355   007A1A                     
  4356                           ; BSR set to: 0
  4357   007A1A  816D               	bsf	___fladd@aexp& (0+255),0,b
  4358   007A1C                     l2266:
  4359                           
  4360                           ; BSR set to: 0
  4361   007A1C  516D               	movf	___fladd@aexp& (0+255),w,b
  4362   007A1E  B4D8               	btfsc	status,2,c
  4363   007A20  EF14  F03D         	goto	u2261
  4364   007A24  EF16  F03D         	goto	u2260
  4365   007A28                     u2261:
  4366   007A28  EF2A  F03D         	goto	l2276
  4367   007A2C                     u2260:
  4368   007A2C                     
  4369                           ; BSR set to: 0
  4370   007A2C  296D               	incf	___fladd@aexp& (0+255),w,b
  4371   007A2E  A4D8               	btfss	status,2,c
  4372   007A30  EF1C  F03D         	goto	u2271
  4373   007A34  EF1E  F03D         	goto	u2270
  4374   007A38                     u2271:
  4375   007A38  EF26  F03D         	goto	l2272
  4376   007A3C                     u2270:
  4377   007A3C                     
  4378                           ; BSR set to: 0
  4379   007A3C  0E00               	movlw	0
  4380   007A3E  6F64               	movwf	___fladd@a& (0+255),b
  4381   007A40  0E00               	movlw	0
  4382   007A42  6F65               	movwf	(___fladd@a+1)& (0+255),b
  4383   007A44  0E00               	movlw	0
  4384   007A46  6F66               	movwf	(___fladd@a+2)& (0+255),b
  4385   007A48  0E00               	movlw	0
  4386   007A4A  6F67               	movwf	(___fladd@a+3)& (0+255),b
  4387   007A4C                     l2272:
  4388                           
  4389                           ; BSR set to: 0
  4390   007A4C  8F66               	bsf	(___fladd@a+2)& (0+255),7,b
  4391   007A4E                     
  4392                           ; BSR set to: 0
  4393   007A4E  6B67               	clrf	(___fladd@a+3)& (0+255),b
  4394   007A50  EF32  F03D         	goto	l2278
  4395   007A54                     l2276:
  4396                           
  4397                           ; BSR set to: 0
  4398   007A54  0E00               	movlw	0
  4399   007A56  6F64               	movwf	___fladd@a& (0+255),b
  4400   007A58  0E00               	movlw	0
  4401   007A5A  6F65               	movwf	(___fladd@a+1)& (0+255),b
  4402   007A5C  0E00               	movlw	0
  4403   007A5E  6F66               	movwf	(___fladd@a+2)& (0+255),b
  4404   007A60  0E00               	movlw	0
  4405   007A62  6F67               	movwf	(___fladd@a+3)& (0+255),b
  4406   007A64                     l2278:
  4407                           
  4408                           ; BSR set to: 0
  4409   007A64  516E               	movf	___fladd@bexp& (0+255),w,b
  4410   007A66  5D6D               	subwf	___fladd@aexp& (0+255),w,b
  4411   007A68  B0D8               	btfsc	status,0,c
  4412   007A6A  EF39  F03D         	goto	u2281
  4413   007A6E  EF3B  F03D         	goto	u2280
  4414   007A72                     u2281:
  4415   007A72  EF62  F03D         	goto	l2314
  4416   007A76                     u2280:
  4417   007A76                     
  4418                           ; BSR set to: 0
  4419   007A76  AD6C               	btfss	___fladd@signs& (0+255),6,b
  4420   007A78  EF40  F03D         	goto	u2291
  4421   007A7C  EF42  F03D         	goto	u2290
  4422   007A80                     u2291:
  4423   007A80  EF44  F03D         	goto	l2284
  4424   007A84                     u2290:
  4425   007A84                     
  4426                           ; BSR set to: 0
  4427   007A84  0E80               	movlw	128
  4428   007A86  1B6C               	xorwf	___fladd@signs& (0+255),f,b
  4429   007A88                     l2284:
  4430                           
  4431                           ; BSR set to: 0
  4432   007A88  C06E  F06F         	movff	___fladd@bexp,___fladd@grs
  4433   007A8C                     
  4434                           ; BSR set to: 0
  4435   007A8C  C06D  F06E         	movff	___fladd@aexp,___fladd@bexp
  4436   007A90                     
  4437                           ; BSR set to: 0
  4438   007A90  C06F  F06D         	movff	___fladd@grs,___fladd@aexp
  4439   007A94                     
  4440                           ; BSR set to: 0
  4441   007A94  C060  F06F         	movff	___fladd@b,___fladd@grs
  4442   007A98                     
  4443                           ; BSR set to: 0
  4444   007A98  C064  F060         	movff	___fladd@a,___fladd@b
  4445   007A9C                     
  4446                           ; BSR set to: 0
  4447   007A9C  C06F  F064         	movff	___fladd@grs,___fladd@a
  4448   007AA0                     
  4449                           ; BSR set to: 0
  4450   007AA0  C061  F06F         	movff	___fladd@b+1,___fladd@grs
  4451   007AA4                     
  4452                           ; BSR set to: 0
  4453   007AA4  C065  F061         	movff	___fladd@a+1,___fladd@b+1
  4454   007AA8                     
  4455                           ; BSR set to: 0
  4456   007AA8  C06F  F065         	movff	___fladd@grs,___fladd@a+1
  4457   007AAC                     
  4458                           ; BSR set to: 0
  4459   007AAC  C062  F06F         	movff	___fladd@b+2,___fladd@grs
  4460   007AB0                     
  4461                           ; BSR set to: 0
  4462   007AB0  C066  F062         	movff	___fladd@a+2,___fladd@b+2
  4463   007AB4                     
  4464                           ; BSR set to: 0
  4465   007AB4  C06F  F066         	movff	___fladd@grs,___fladd@a+2
  4466   007AB8                     
  4467                           ; BSR set to: 0
  4468   007AB8  C063  F06F         	movff	___fladd@b+3,___fladd@grs
  4469   007ABC                     
  4470                           ; BSR set to: 0
  4471   007ABC  C067  F063         	movff	___fladd@a+3,___fladd@b+3
  4472   007AC0                     
  4473                           ; BSR set to: 0
  4474   007AC0  C06F  F067         	movff	___fladd@grs,___fladd@a+3
  4475   007AC4                     l2314:
  4476                           
  4477                           ; BSR set to: 0
  4478   007AC4  6B6F               	clrf	___fladd@grs& (0+255),b
  4479   007AC6  516E               	movf	___fladd@bexp& (0+255),w,b
  4480   007AC8  C06D  F068         	movff	___fladd@aexp,??___fladd
  4481   007ACC  6B69               	clrf	(??___fladd+1)& (0+255),b
  4482   007ACE  5F68               	subwf	??___fladd& (0+255),f,b
  4483   007AD0  0E00               	movlw	0
  4484   007AD2  5B69               	subwfb	(??___fladd+1)& (0+255),f,b
  4485   007AD4  BF69               	btfsc	(??___fladd+1)& (0+255),7,b
  4486   007AD6  EF76  F03D         	goto	u2301
  4487   007ADA  5169               	movf	(??___fladd+1)& (0+255),w,b
  4488   007ADC  E109               	bnz	u2300
  4489   007ADE  0E1A               	movlw	26
  4490   007AE0  5D68               	subwf	??___fladd& (0+255),w,b
  4491   007AE2  A0D8               	btfss	status,0,c
  4492   007AE4  EF76  F03D         	goto	u2301
  4493   007AE8  EF78  F03D         	goto	u2300
  4494   007AEC                     u2301:
  4495   007AEC  EFAF  F03D         	goto	l711
  4496   007AF0                     u2300:
  4497   007AF0                     
  4498                           ; BSR set to: 0
  4499   007AF0  5160               	movf	___fladd@b& (0+255),w,b
  4500   007AF2  1161               	iorwf	(___fladd@b+1)& (0+255),w,b
  4501   007AF4  1162               	iorwf	(___fladd@b+2)& (0+255),w,b
  4502   007AF6  1163               	iorwf	(___fladd@b+3)& (0+255),w,b
  4503   007AF8  A4D8               	btfss	status,2,c
  4504   007AFA  EF81  F03D         	goto	u2311
  4505   007AFE  EF84  F03D         	goto	u2310
  4506   007B02                     u2311:
  4507   007B02  0E01               	movlw	1
  4508   007B04  EF85  F03D         	goto	u2320
  4509   007B08                     u2310:
  4510   007B08  0E00               	movlw	0
  4511   007B0A                     u2320:
  4512   007B0A  6F6F               	movwf	___fladd@grs& (0+255),b
  4513   007B0C                     
  4514                           ; BSR set to: 0
  4515   007B0C  0E00               	movlw	0
  4516   007B0E  6F60               	movwf	___fladd@b& (0+255),b
  4517   007B10  0E00               	movlw	0
  4518   007B12  6F61               	movwf	(___fladd@b+1)& (0+255),b
  4519   007B14  0E00               	movlw	0
  4520   007B16  6F62               	movwf	(___fladd@b+2)& (0+255),b
  4521   007B18  0E00               	movlw	0
  4522   007B1A  6F63               	movwf	(___fladd@b+3)& (0+255),b
  4523   007B1C                     
  4524                           ; BSR set to: 0
  4525   007B1C  C06D  F06E         	movff	___fladd@aexp,___fladd@bexp
  4526   007B20  EFB8  F03D         	goto	l710
  4527   007B24                     l712:
  4528                           
  4529                           ; BSR set to: 0
  4530   007B24  A16F               	btfss	___fladd@grs& (0+255),0,b
  4531   007B26  EF97  F03D         	goto	u2331
  4532   007B2A  EF99  F03D         	goto	u2330
  4533   007B2E                     u2331:
  4534   007B2E  EF9F  F03D         	goto	l2324
  4535   007B32                     u2330:
  4536   007B32                     
  4537                           ; BSR set to: 0
  4538   007B32  90D8               	bcf	status,0,c
  4539   007B34  316F               	rrcf	___fladd@grs& (0+255),w,b
  4540   007B36  0901               	iorlw	1
  4541   007B38  6F6F               	movwf	___fladd@grs& (0+255),b
  4542   007B3A  EFA1  F03D         	goto	l2326
  4543   007B3E                     l2324:
  4544                           
  4545                           ; BSR set to: 0
  4546   007B3E  90D8               	bcf	status,0,c
  4547   007B40  336F               	rrcf	___fladd@grs& (0+255),f,b
  4548   007B42                     l2326:
  4549                           
  4550                           ; BSR set to: 0
  4551   007B42  A160               	btfss	___fladd@b& (0+255),0,b
  4552   007B44  EFA6  F03D         	goto	u2341
  4553   007B48  EFA8  F03D         	goto	u2340
  4554   007B4C                     u2341:
  4555   007B4C  EFA9  F03D         	goto	l2330
  4556   007B50                     u2340:
  4557   007B50                     
  4558                           ; BSR set to: 0
  4559   007B50  8F6F               	bsf	___fladd@grs& (0+255),7,b
  4560   007B52                     l2330:
  4561                           
  4562                           ; BSR set to: 0
  4563   007B52  3563               	rlcf	(___fladd@b+3)& (0+255),w,b
  4564   007B54  3363               	rrcf	(___fladd@b+3)& (0+255),f,b
  4565   007B56  3362               	rrcf	(___fladd@b+2)& (0+255),f,b
  4566   007B58  3361               	rrcf	(___fladd@b+1)& (0+255),f,b
  4567   007B5A  3360               	rrcf	___fladd@b& (0+255),f,b
  4568   007B5C                     
  4569                           ; BSR set to: 0
  4570   007B5C  2B6E               	incf	___fladd@bexp& (0+255),f,b
  4571   007B5E                     l711:
  4572                           
  4573                           ; BSR set to: 0
  4574   007B5E  516D               	movf	___fladd@aexp& (0+255),w,b
  4575   007B60  5D6E               	subwf	___fladd@bexp& (0+255),w,b
  4576   007B62  A0D8               	btfss	status,0,c
  4577   007B64  EFB6  F03D         	goto	u2351
  4578   007B68  EFB8  F03D         	goto	u2350
  4579   007B6C                     u2351:
  4580   007B6C  EF92  F03D         	goto	l712
  4581   007B70                     u2350:
  4582   007B70                     l710:
  4583                           
  4584                           ; BSR set to: 0
  4585   007B70  BD6C               	btfsc	___fladd@signs& (0+255),6,b
  4586   007B72  EFBD  F03D         	goto	u2361
  4587   007B76  EFBF  F03D         	goto	u2360
  4588   007B7A                     u2361:
  4589   007B7A  EFFF  F03D         	goto	l2358
  4590   007B7E                     u2360:
  4591   007B7E                     
  4592                           ; BSR set to: 0
  4593   007B7E  516E               	movf	___fladd@bexp& (0+255),w,b
  4594   007B80  A4D8               	btfss	status,2,c
  4595   007B82  EFC5  F03D         	goto	u2371
  4596   007B86  EFC7  F03D         	goto	u2370
  4597   007B8A                     u2371:
  4598   007B8A  EFD1  F03D         	goto	l2340
  4599   007B8E                     u2370:
  4600   007B8E                     
  4601                           ; BSR set to: 0
  4602   007B8E  0E00               	movlw	0
  4603   007B90  6F60               	movwf	?___fladd& (0+255),b
  4604   007B92  0E00               	movlw	0
  4605   007B94  6F61               	movwf	(?___fladd+1)& (0+255),b
  4606   007B96  0E00               	movlw	0
  4607   007B98  6F62               	movwf	(?___fladd+2)& (0+255),b
  4608   007B9A  0E00               	movlw	0
  4609   007B9C  6F63               	movwf	(?___fladd+3)& (0+255),b
  4610   007B9E  EF1E  F03F         	goto	l719
  4611   007BA2                     l2340:
  4612                           
  4613                           ; BSR set to: 0
  4614   007BA2  5164               	movf	___fladd@a& (0+255),w,b
  4615   007BA4  2760               	addwf	___fladd@b& (0+255),f,b
  4616   007BA6  5165               	movf	(___fladd@a+1)& (0+255),w,b
  4617   007BA8  2361               	addwfc	(___fladd@b+1)& (0+255),f,b
  4618   007BAA  5166               	movf	(___fladd@a+2)& (0+255),w,b
  4619   007BAC  2362               	addwfc	(___fladd@b+2)& (0+255),f,b
  4620   007BAE  5167               	movf	(___fladd@a+3)& (0+255),w,b
  4621   007BB0  2363               	addwfc	(___fladd@b+3)& (0+255),f,b
  4622   007BB2                     
  4623                           ; BSR set to: 0
  4624   007BB2  A163               	btfss	(___fladd@b+3)& (0+255),0,b
  4625   007BB4  EFDE  F03D         	goto	u2381
  4626   007BB8  EFE0  F03D         	goto	u2380
  4627   007BBC                     u2381:
  4628   007BBC  EF8C  F03E         	goto	l724
  4629   007BC0                     u2380:
  4630   007BC0                     
  4631                           ; BSR set to: 0
  4632   007BC0  A16F               	btfss	___fladd@grs& (0+255),0,b
  4633   007BC2  EFE5  F03D         	goto	u2391
  4634   007BC6  EFE7  F03D         	goto	u2390
  4635   007BCA                     u2391:
  4636   007BCA  EFED  F03D         	goto	l2348
  4637   007BCE                     u2390:
  4638   007BCE                     
  4639                           ; BSR set to: 0
  4640   007BCE  90D8               	bcf	status,0,c
  4641   007BD0  316F               	rrcf	___fladd@grs& (0+255),w,b
  4642   007BD2  0901               	iorlw	1
  4643   007BD4  6F6F               	movwf	___fladd@grs& (0+255),b
  4644   007BD6  EFEF  F03D         	goto	l2350
  4645   007BDA                     l2348:
  4646                           
  4647                           ; BSR set to: 0
  4648   007BDA  90D8               	bcf	status,0,c
  4649   007BDC  336F               	rrcf	___fladd@grs& (0+255),f,b
  4650   007BDE                     l2350:
  4651                           
  4652                           ; BSR set to: 0
  4653   007BDE  A160               	btfss	___fladd@b& (0+255),0,b
  4654   007BE0  EFF4  F03D         	goto	u2401
  4655   007BE4  EFF6  F03D         	goto	u2400
  4656   007BE8                     u2401:
  4657   007BE8  EFF7  F03D         	goto	l2354
  4658   007BEC                     u2400:
  4659   007BEC                     
  4660                           ; BSR set to: 0
  4661   007BEC  8F6F               	bsf	___fladd@grs& (0+255),7,b
  4662   007BEE                     l2354:
  4663                           
  4664                           ; BSR set to: 0
  4665   007BEE  3563               	rlcf	(___fladd@b+3)& (0+255),w,b
  4666   007BF0  3363               	rrcf	(___fladd@b+3)& (0+255),f,b
  4667   007BF2  3362               	rrcf	(___fladd@b+2)& (0+255),f,b
  4668   007BF4  3361               	rrcf	(___fladd@b+1)& (0+255),f,b
  4669   007BF6  3360               	rrcf	___fladd@b& (0+255),f,b
  4670   007BF8                     
  4671                           ; BSR set to: 0
  4672   007BF8  2B6E               	incf	___fladd@bexp& (0+255),f,b
  4673   007BFA  EF8C  F03E         	goto	l724
  4674   007BFE                     l2358:
  4675                           
  4676                           ; BSR set to: 0
  4677   007BFE  5164               	movf	___fladd@a& (0+255),w,b
  4678   007C00  5D60               	subwf	___fladd@b& (0+255),w,b
  4679   007C02  5165               	movf	(___fladd@a+1)& (0+255),w,b
  4680   007C04  5961               	subwfb	(___fladd@b+1)& (0+255),w,b
  4681   007C06  5166               	movf	(___fladd@a+2)& (0+255),w,b
  4682   007C08  5962               	subwfb	(___fladd@b+2)& (0+255),w,b
  4683   007C0A  5163               	movf	(___fladd@b+3)& (0+255),w,b
  4684   007C0C  0A80               	xorlw	128
  4685   007C0E  6F68               	movwf	??___fladd& (0+255),b
  4686   007C10  5167               	movf	(___fladd@a+3)& (0+255),w,b
  4687   007C12  0A80               	xorlw	128
  4688   007C14  5968               	subwfb	??___fladd& (0+255),w,b
  4689   007C16  B0D8               	btfsc	status,0,c
  4690   007C18  EF10  F03E         	goto	u2411
  4691   007C1C  EF12  F03E         	goto	u2410
  4692   007C20                     u2411:
  4693   007C20  EF3D  F03E         	goto	l2368
  4694   007C24                     u2410:
  4695   007C24                     
  4696                           ; BSR set to: 0
  4697   007C24  5160               	movf	___fladd@b& (0+255),w,b
  4698   007C26  5D64               	subwf	___fladd@a& (0+255),w,b
  4699   007C28  6F68               	movwf	??___fladd& (0+255),b
  4700   007C2A  5161               	movf	(___fladd@b+1)& (0+255),w,b
  4701   007C2C  5965               	subwfb	(___fladd@a+1)& (0+255),w,b
  4702   007C2E  6F69               	movwf	(??___fladd+1)& (0+255),b
  4703   007C30  5162               	movf	(___fladd@b+2)& (0+255),w,b
  4704   007C32  5966               	subwfb	(___fladd@a+2)& (0+255),w,b
  4705   007C34  6F6A               	movwf	(??___fladd+2)& (0+255),b
  4706   007C36  5163               	movf	(___fladd@b+3)& (0+255),w,b
  4707   007C38  5967               	subwfb	(___fladd@a+3)& (0+255),w,b
  4708   007C3A  6F6B               	movwf	(??___fladd+3)& (0+255),b
  4709   007C3C  0EFF               	movlw	255
  4710   007C3E  2568               	addwf	??___fladd& (0+255),w,b
  4711   007C40  6F60               	movwf	___fladd@b& (0+255),b
  4712   007C42  0EFF               	movlw	255
  4713   007C44  2169               	addwfc	(??___fladd+1)& (0+255),w,b
  4714   007C46  6F61               	movwf	(___fladd@b+1)& (0+255),b
  4715   007C48  0EFF               	movlw	255
  4716   007C4A  216A               	addwfc	(??___fladd+2)& (0+255),w,b
  4717   007C4C  6F62               	movwf	(___fladd@b+2)& (0+255),b
  4718   007C4E  0EFF               	movlw	255
  4719   007C50  216B               	addwfc	(??___fladd+3)& (0+255),w,b
  4720   007C52  6F63               	movwf	(___fladd@b+3)& (0+255),b
  4721   007C54  0E80               	movlw	128
  4722   007C56  1B6C               	xorwf	___fladd@signs& (0+255),f,b
  4723   007C58                     
  4724                           ; BSR set to: 0
  4725   007C58  6D6F               	negf	___fladd@grs& (0+255),b
  4726   007C5A                     
  4727                           ; BSR set to: 0
  4728   007C5A  516F               	movf	___fladd@grs& (0+255),w,b
  4729   007C5C  A4D8               	btfss	status,2,c
  4730   007C5E  EF33  F03E         	goto	u2421
  4731   007C62  EF35  F03E         	goto	u2420
  4732   007C66                     u2421:
  4733   007C66  EF45  F03E         	goto	l727
  4734   007C6A                     u2420:
  4735   007C6A                     
  4736                           ; BSR set to: 0
  4737   007C6A  0E01               	movlw	1
  4738   007C6C  2760               	addwf	___fladd@b& (0+255),f,b
  4739   007C6E  0E00               	movlw	0
  4740   007C70  2361               	addwfc	(___fladd@b+1)& (0+255),f,b
  4741   007C72  2362               	addwfc	(___fladd@b+2)& (0+255),f,b
  4742   007C74  2363               	addwfc	(___fladd@b+3)& (0+255),f,b
  4743   007C76  EF45  F03E         	goto	l727
  4744   007C7A                     l2368:
  4745                           
  4746                           ; BSR set to: 0
  4747   007C7A  5164               	movf	___fladd@a& (0+255),w,b
  4748   007C7C  5F60               	subwf	___fladd@b& (0+255),f,b
  4749   007C7E  5165               	movf	(___fladd@a+1)& (0+255),w,b
  4750   007C80  5B61               	subwfb	(___fladd@b+1)& (0+255),f,b
  4751   007C82  5166               	movf	(___fladd@a+2)& (0+255),w,b
  4752   007C84  5B62               	subwfb	(___fladd@b+2)& (0+255),f,b
  4753   007C86  5167               	movf	(___fladd@a+3)& (0+255),w,b
  4754   007C88  5B63               	subwfb	(___fladd@b+3)& (0+255),f,b
  4755   007C8A                     l727:
  4756                           
  4757                           ; BSR set to: 0
  4758   007C8A  5160               	movf	___fladd@b& (0+255),w,b
  4759   007C8C  1161               	iorwf	(___fladd@b+1)& (0+255),w,b
  4760   007C8E  1162               	iorwf	(___fladd@b+2)& (0+255),w,b
  4761   007C90  1163               	iorwf	(___fladd@b+3)& (0+255),w,b
  4762   007C92  A4D8               	btfss	status,2,c
  4763   007C94  EF4E  F03E         	goto	u2431
  4764   007C98  EF50  F03E         	goto	u2430
  4765   007C9C                     u2431:
  4766   007C9C  EF85  F03E         	goto	l2392
  4767   007CA0                     u2430:
  4768   007CA0                     
  4769                           ; BSR set to: 0
  4770   007CA0  516F               	movf	___fladd@grs& (0+255),w,b
  4771   007CA2  A4D8               	btfss	status,2,c
  4772   007CA4  EF56  F03E         	goto	u2441
  4773   007CA8  EF58  F03E         	goto	u2440
  4774   007CAC                     u2441:
  4775   007CAC  EF85  F03E         	goto	l2392
  4776   007CB0                     u2440:
  4777   007CB0                     
  4778                           ; BSR set to: 0
  4779   007CB0  0E00               	movlw	0
  4780   007CB2  6F60               	movwf	?___fladd& (0+255),b
  4781   007CB4  0E00               	movlw	0
  4782   007CB6  6F61               	movwf	(?___fladd+1)& (0+255),b
  4783   007CB8  0E00               	movlw	0
  4784   007CBA  6F62               	movwf	(?___fladd+2)& (0+255),b
  4785   007CBC  0E00               	movlw	0
  4786   007CBE  6F63               	movwf	(?___fladd+3)& (0+255),b
  4787   007CC0  EF1E  F03F         	goto	l719
  4788   007CC4                     l2376:
  4789                           
  4790                           ; BSR set to: 0
  4791   007CC4  90D8               	bcf	status,0,c
  4792   007CC6  3760               	rlcf	___fladd@b& (0+255),f,b
  4793   007CC8  3761               	rlcf	(___fladd@b+1)& (0+255),f,b
  4794   007CCA  3762               	rlcf	(___fladd@b+2)& (0+255),f,b
  4795   007CCC  3763               	rlcf	(___fladd@b+3)& (0+255),f,b
  4796   007CCE                     
  4797                           ; BSR set to: 0
  4798   007CCE  AF6F               	btfss	___fladd@grs& (0+255),7,b
  4799   007CD0  EF6C  F03E         	goto	u2451
  4800   007CD4  EF6E  F03E         	goto	u2450
  4801   007CD8                     u2451:
  4802   007CD8  EF6F  F03E         	goto	l2382
  4803   007CDC                     u2450:
  4804   007CDC                     
  4805                           ; BSR set to: 0
  4806   007CDC  8160               	bsf	___fladd@b& (0+255),0,b
  4807   007CDE                     l2382:
  4808                           
  4809                           ; BSR set to: 0
  4810   007CDE  A16F               	btfss	___fladd@grs& (0+255),0,b
  4811   007CE0  EF74  F03E         	goto	u2461
  4812   007CE4  EF76  F03E         	goto	u2460
  4813   007CE8                     u2461:
  4814   007CE8  EF7A  F03E         	goto	l2386
  4815   007CEC                     u2460:
  4816   007CEC                     
  4817                           ; BSR set to: 0
  4818   007CEC  80D8               	bsf	status,0,c
  4819   007CEE  376F               	rlcf	___fladd@grs& (0+255),f,b
  4820   007CF0  EF7C  F03E         	goto	l2388
  4821   007CF4                     l2386:
  4822                           
  4823                           ; BSR set to: 0
  4824   007CF4  90D8               	bcf	status,0,c
  4825   007CF6  376F               	rlcf	___fladd@grs& (0+255),f,b
  4826   007CF8                     l2388:
  4827                           
  4828                           ; BSR set to: 0
  4829   007CF8  516E               	movf	___fladd@bexp& (0+255),w,b
  4830   007CFA  B4D8               	btfsc	status,2,c
  4831   007CFC  EF82  F03E         	goto	u2471
  4832   007D00  EF84  F03E         	goto	u2470
  4833   007D04                     u2471:
  4834   007D04  EF85  F03E         	goto	l2392
  4835   007D08                     u2470:
  4836   007D08                     
  4837                           ; BSR set to: 0
  4838   007D08  076E               	decf	___fladd@bexp& (0+255),f,b
  4839   007D0A                     l2392:
  4840                           
  4841                           ; BSR set to: 0
  4842   007D0A  AF62               	btfss	(___fladd@b+2)& (0+255),7,b
  4843   007D0C  EF8A  F03E         	goto	u2481
  4844   007D10  EF8C  F03E         	goto	u2480
  4845   007D14                     u2481:
  4846   007D14  EF62  F03E         	goto	l2376
  4847   007D18                     u2480:
  4848   007D18                     l724:
  4849                           
  4850                           ; BSR set to: 0
  4851   007D18  6B6D               	clrf	___fladd@aexp& (0+255),b
  4852   007D1A  AF6F               	btfss	___fladd@grs& (0+255),7,b
  4853   007D1C  EF92  F03E         	goto	u2491
  4854   007D20  EF94  F03E         	goto	u2490
  4855   007D24                     u2491:
  4856   007D24  EFAC  F03E         	goto	l736
  4857   007D28                     u2490:
  4858   007D28                     
  4859                           ; BSR set to: 0
  4860   007D28  C06F  F068         	movff	___fladd@grs,??___fladd
  4861   007D2C  0E7F               	movlw	127
  4862   007D2E  1768               	andwf	??___fladd& (0+255),f,b
  4863   007D30  B4D8               	btfsc	status,2,c
  4864   007D32  EF9D  F03E         	goto	u2501
  4865   007D36  EF9F  F03E         	goto	u2500
  4866   007D3A                     u2501:
  4867   007D3A  EFA3  F03E         	goto	l737
  4868   007D3E                     u2500:
  4869   007D3E                     l2396:
  4870                           
  4871                           ; BSR set to: 0
  4872   007D3E  0E01               	movlw	1
  4873   007D40  6F6D               	movwf	___fladd@aexp& (0+255),b
  4874   007D42  EFAC  F03E         	goto	l736
  4875   007D46                     l737:
  4876                           
  4877                           ; BSR set to: 0
  4878   007D46  A160               	btfss	___fladd@b& (0+255),0,b
  4879   007D48  EFA8  F03E         	goto	u2511
  4880   007D4C  EFAA  F03E         	goto	u2510
  4881   007D50                     u2511:
  4882   007D50  EFAC  F03E         	goto	l736
  4883   007D54                     u2510:
  4884   007D54  EF9F  F03E         	goto	l2396
  4885   007D58                     l736:
  4886                           
  4887                           ; BSR set to: 0
  4888   007D58  516D               	movf	___fladd@aexp& (0+255),w,b
  4889   007D5A  B4D8               	btfsc	status,2,c
  4890   007D5C  EFB2  F03E         	goto	u2521
  4891   007D60  EFB4  F03E         	goto	u2520
  4892   007D64                     u2521:
  4893   007D64  EFDF  F03E         	goto	l2408
  4894   007D68                     u2520:
  4895   007D68                     
  4896                           ; BSR set to: 0
  4897   007D68  0E01               	movlw	1
  4898   007D6A  2760               	addwf	___fladd@b& (0+255),f,b
  4899   007D6C  0E00               	movlw	0
  4900   007D6E  2361               	addwfc	(___fladd@b+1)& (0+255),f,b
  4901   007D70  2362               	addwfc	(___fladd@b+2)& (0+255),f,b
  4902   007D72  2363               	addwfc	(___fladd@b+3)& (0+255),f,b
  4903   007D74                     
  4904                           ; BSR set to: 0
  4905   007D74  A163               	btfss	(___fladd@b+3)& (0+255),0,b
  4906   007D76  EFBF  F03E         	goto	u2531
  4907   007D7A  EFC1  F03E         	goto	u2530
  4908   007D7E                     u2531:
  4909   007D7E  EFDF  F03E         	goto	l2408
  4910   007D82                     u2530:
  4911   007D82                     
  4912                           ; BSR set to: 0
  4913   007D82  C060  F068         	movff	___fladd@b,??___fladd
  4914   007D86  C061  F069         	movff	___fladd@b+1,??___fladd+1
  4915   007D8A  C062  F06A         	movff	___fladd@b+2,??___fladd+2
  4916   007D8E  C063  F06B         	movff	___fladd@b+3,??___fladd+3
  4917   007D92  356B               	rlcf	(??___fladd+3)& (0+255),w,b
  4918   007D94  336B               	rrcf	(??___fladd+3)& (0+255),f,b
  4919   007D96  336A               	rrcf	(??___fladd+2)& (0+255),f,b
  4920   007D98  3369               	rrcf	(??___fladd+1)& (0+255),f,b
  4921   007D9A  3368               	rrcf	??___fladd& (0+255),f,b
  4922   007D9C  C068  F060         	movff	??___fladd,___fladd@b
  4923   007DA0  C069  F061         	movff	??___fladd+1,___fladd@b+1
  4924   007DA4  C06A  F062         	movff	??___fladd+2,___fladd@b+2
  4925   007DA8  C06B  F063         	movff	??___fladd+3,___fladd@b+3
  4926   007DAC  296E               	incf	___fladd@bexp& (0+255),w,b
  4927   007DAE  B4D8               	btfsc	status,2,c
  4928   007DB0  EFDC  F03E         	goto	u2541
  4929   007DB4  EFDE  F03E         	goto	u2540
  4930   007DB8                     u2541:
  4931   007DB8  EFDF  F03E         	goto	l2408
  4932   007DBC                     u2540:
  4933   007DBC                     
  4934                           ; BSR set to: 0
  4935   007DBC  2B6E               	incf	___fladd@bexp& (0+255),f,b
  4936   007DBE                     l2408:
  4937                           
  4938                           ; BSR set to: 0
  4939   007DBE  296E               	incf	___fladd@bexp& (0+255),w,b
  4940   007DC0  B4D8               	btfsc	status,2,c
  4941   007DC2  EFE5  F03E         	goto	u2551
  4942   007DC6  EFE7  F03E         	goto	u2550
  4943   007DCA                     u2551:
  4944   007DCA  EFEF  F03E         	goto	l2412
  4945   007DCE                     u2550:
  4946   007DCE                     
  4947                           ; BSR set to: 0
  4948   007DCE  516E               	movf	___fladd@bexp& (0+255),w,b
  4949   007DD0  A4D8               	btfss	status,2,c
  4950   007DD2  EFED  F03E         	goto	u2561
  4951   007DD6  EFEF  F03E         	goto	u2560
  4952   007DDA                     u2561:
  4953   007DDA  EF00  F03F         	goto	l743
  4954   007DDE                     u2560:
  4955   007DDE                     l2412:
  4956                           
  4957                           ; BSR set to: 0
  4958   007DDE  0E00               	movlw	0
  4959   007DE0  6F60               	movwf	___fladd@b& (0+255),b
  4960   007DE2  0E00               	movlw	0
  4961   007DE4  6F61               	movwf	(___fladd@b+1)& (0+255),b
  4962   007DE6  0E00               	movlw	0
  4963   007DE8  6F62               	movwf	(___fladd@b+2)& (0+255),b
  4964   007DEA  0E00               	movlw	0
  4965   007DEC  6F63               	movwf	(___fladd@b+3)& (0+255),b
  4966   007DEE  516E               	movf	___fladd@bexp& (0+255),w,b
  4967   007DF0  A4D8               	btfss	status,2,c
  4968   007DF2  EFFD  F03E         	goto	u2571
  4969   007DF6  EFFF  F03E         	goto	u2570
  4970   007DFA                     u2571:
  4971   007DFA  EF00  F03F         	goto	l743
  4972   007DFE                     u2570:
  4973   007DFE                     
  4974                           ; BSR set to: 0
  4975   007DFE  6B6C               	clrf	___fladd@signs& (0+255),b
  4976   007E00                     l743:
  4977                           
  4978                           ; BSR set to: 0
  4979   007E00  A16E               	btfss	___fladd@bexp& (0+255),0,b
  4980   007E02  EF05  F03F         	goto	u2581
  4981   007E06  EF07  F03F         	goto	u2580
  4982   007E0A                     u2581:
  4983   007E0A  EF0A  F03F         	goto	l2418
  4984   007E0E                     u2580:
  4985   007E0E                     
  4986                           ; BSR set to: 0
  4987   007E0E  8F62               	bsf	(___fladd@b+2)& (0+255),7,b
  4988   007E10  EF0B  F03F         	goto	l2420
  4989   007E14                     l2418:
  4990                           
  4991                           ; BSR set to: 0
  4992   007E14  9F62               	bcf	(___fladd@b+2)& (0+255),7,b
  4993   007E16                     l2420:
  4994                           
  4995                           ; BSR set to: 0
  4996   007E16  90D8               	bcf	status,0,c
  4997   007E18  316E               	rrcf	___fladd@bexp& (0+255),w,b
  4998   007E1A  6F63               	movwf	(___fladd@b+3)& (0+255),b
  4999   007E1C                     
  5000                           ; BSR set to: 0
  5001   007E1C  AF6C               	btfss	___fladd@signs& (0+255),7,b
  5002   007E1E  EF13  F03F         	goto	u2591
  5003   007E22  EF15  F03F         	goto	u2590
  5004   007E26                     u2591:
  5005   007E26  EF16  F03F         	goto	l2426
  5006   007E2A                     u2590:
  5007   007E2A                     
  5008                           ; BSR set to: 0
  5009   007E2A  8F63               	bsf	(___fladd@b+3)& (0+255),7,b
  5010   007E2C                     l2426:
  5011                           
  5012                           ; BSR set to: 0
  5013   007E2C  C060  F060         	movff	___fladd@b,?___fladd
  5014   007E30  C061  F061         	movff	___fladd@b+1,?___fladd+1
  5015   007E34  C062  F062         	movff	___fladd@b+2,?___fladd+2
  5016   007E38  C063  F063         	movff	___fladd@b+3,?___fladd+3
  5017   007E3C                     l719:
  5018                           
  5019                           ; BSR set to: 0
  5020   007E3C  0012               	return		;funcret
  5021   007E3E                     __end_of___fladd:
  5022                           	callstack 0
  5023                           
  5024 ;; *************** function ___flmul *****************
  5025 ;; Defined at:
  5026 ;;		line 8 in file "/opt/microchip/xc8/v3.00/pic/sources/c99/common/sprcmul.c"
  5027 ;; Parameters:    Size  Location     Type
  5028 ;;  b               4   39[BANK0 ] unsigned char 
  5029 ;;  a               4   43[BANK0 ] unsigned char 
  5030 ;; Auto vars:     Size  Location     Type
  5031 ;;  prod            4   58[BANK0 ] struct .
  5032 ;;  grs             4   52[BANK0 ] unsigned long 
  5033 ;;  temp            2   62[BANK0 ] struct .
  5034 ;;  bexp            1   57[BANK0 ] unsigned char 
  5035 ;;  aexp            1   56[BANK0 ] unsigned char 
  5036 ;;  sign            1   51[BANK0 ] unsigned char 
  5037 ;; Return value:  Size  Location     Type
  5038 ;;                  4   39[BANK0 ] unsigned char 
  5039 ;; Registers used:
  5040 ;;		wreg, status,2, status,0, prodl, prodh
  5041 ;; Tracked objects:
  5042 ;;		On entry : 0/0
  5043 ;;		On exit  : 0/0
  5044 ;;		Unchanged: 0/0
  5045 ;; Data sizes:     COMRAM   BANK0   BANK1   BANK2   BANK3   BANK4   BANK5
  5046 ;;      Params:         0       8       0       0       0       0       0
  5047 ;;      Locals:         0      13       0       0       0       0       0
  5048 ;;      Temps:          0       4       0       0       0       0       0
  5049 ;;      Totals:         0      25       0       0       0       0       0
  5050 ;;Total ram usage:       25 bytes
  5051 ;; Hardware stack levels used: 1
  5052 ;; Hardware stack levels required when called: 6
  5053 ;; This function calls:
  5054 ;;		Nothing
  5055 ;; This function is called by:
  5056 ;;		_lerTemperatura
  5057 ;;		_displayTemperatura
  5058 ;; This function uses a non-reentrant model
  5059 ;;
  5060                           
  5061                           	psect	text18
  5062   00755E                     __ptext18:
  5063                           	callstack 0
  5064   00755E                     ___flmul:
  5065                           	callstack 23
  5066   00755E  0100               	movlb	0	; () banked
  5067   007560  518A               	movf	(___flmul@b+3)& (0+255),w,b
  5068   007562  0B80               	andlw	128
  5069   007564  6F93               	movwf	___flmul@sign& (0+255),b
  5070   007566  518A               	movf	(___flmul@b+3)& (0+255),w,b
  5071   007568  258A               	addwf	(___flmul@b+3)& (0+255),w,b
  5072   00756A  6F99               	movwf	___flmul@bexp& (0+255),b
  5073   00756C                     
  5074                           ; BSR set to: 0
  5075   00756C  AF89               	btfss	(___flmul@b+2)& (0+255),7,b
  5076   00756E  EFBB  F03A         	goto	u3141
  5077   007572  EFBD  F03A         	goto	u3140
  5078   007576                     u3141:
  5079   007576  EFBE  F03A         	goto	l2694
  5080   00757A                     u3140:
  5081   00757A                     
  5082                           ; BSR set to: 0
  5083   00757A  8199               	bsf	___flmul@bexp& (0+255),0,b
  5084   00757C                     l2694:
  5085                           
  5086                           ; BSR set to: 0
  5087   00757C  5199               	movf	___flmul@bexp& (0+255),w,b
  5088   00757E  B4D8               	btfsc	status,2,c
  5089   007580  EFC4  F03A         	goto	u3151
  5090   007584  EFC6  F03A         	goto	u3150
  5091   007588                     u3151:
  5092   007588  EFD9  F03A         	goto	l2702
  5093   00758C                     u3150:
  5094   00758C                     
  5095                           ; BSR set to: 0
  5096   00758C  2999               	incf	___flmul@bexp& (0+255),w,b
  5097   00758E  A4D8               	btfss	status,2,c
  5098   007590  EFCC  F03A         	goto	u3161
  5099   007594  EFCE  F03A         	goto	u3160
  5100   007598                     u3161:
  5101   007598  EFD6  F03A         	goto	l2700
  5102   00759C                     u3160:
  5103   00759C                     
  5104                           ; BSR set to: 0
  5105   00759C  0E00               	movlw	0
  5106   00759E  6F87               	movwf	___flmul@b& (0+255),b
  5107   0075A0  0E00               	movlw	0
  5108   0075A2  6F88               	movwf	(___flmul@b+1)& (0+255),b
  5109   0075A4  0E00               	movlw	0
  5110   0075A6  6F89               	movwf	(___flmul@b+2)& (0+255),b
  5111   0075A8  0E00               	movlw	0
  5112   0075AA  6F8A               	movwf	(___flmul@b+3)& (0+255),b
  5113   0075AC                     l2700:
  5114                           
  5115                           ; BSR set to: 0
  5116   0075AC  8F89               	bsf	(___flmul@b+2)& (0+255),7,b
  5117   0075AE  EFE1  F03A         	goto	l2704
  5118   0075B2                     l2702:
  5119                           
  5120                           ; BSR set to: 0
  5121   0075B2  0E00               	movlw	0
  5122   0075B4  6F87               	movwf	___flmul@b& (0+255),b
  5123   0075B6  0E00               	movlw	0
  5124   0075B8  6F88               	movwf	(___flmul@b+1)& (0+255),b
  5125   0075BA  0E00               	movlw	0
  5126   0075BC  6F89               	movwf	(___flmul@b+2)& (0+255),b
  5127   0075BE  0E00               	movlw	0
  5128   0075C0  6F8A               	movwf	(___flmul@b+3)& (0+255),b
  5129   0075C2                     l2704:
  5130                           
  5131                           ; BSR set to: 0
  5132   0075C2  518E               	movf	(___flmul@a+3)& (0+255),w,b
  5133   0075C4  0B80               	andlw	128
  5134   0075C6  1B93               	xorwf	___flmul@sign& (0+255),f,b
  5135   0075C8                     
  5136                           ; BSR set to: 0
  5137   0075C8  518E               	movf	(___flmul@a+3)& (0+255),w,b
  5138   0075CA  258E               	addwf	(___flmul@a+3)& (0+255),w,b
  5139   0075CC  6F98               	movwf	___flmul@aexp& (0+255),b
  5140   0075CE                     
  5141                           ; BSR set to: 0
  5142   0075CE  AF8D               	btfss	(___flmul@a+2)& (0+255),7,b
  5143   0075D0  EFEC  F03A         	goto	u3171
  5144   0075D4  EFEE  F03A         	goto	u3170
  5145   0075D8                     u3171:
  5146   0075D8  EFEF  F03A         	goto	l2712
  5147   0075DC                     u3170:
  5148   0075DC                     
  5149                           ; BSR set to: 0
  5150   0075DC  8198               	bsf	___flmul@aexp& (0+255),0,b
  5151   0075DE                     l2712:
  5152                           
  5153                           ; BSR set to: 0
  5154   0075DE  5198               	movf	___flmul@aexp& (0+255),w,b
  5155   0075E0  B4D8               	btfsc	status,2,c
  5156   0075E2  EFF5  F03A         	goto	u3181
  5157   0075E6  EFF7  F03A         	goto	u3180
  5158   0075EA                     u3181:
  5159   0075EA  EF0A  F03B         	goto	l2720
  5160   0075EE                     u3180:
  5161   0075EE                     
  5162                           ; BSR set to: 0
  5163   0075EE  2998               	incf	___flmul@aexp& (0+255),w,b
  5164   0075F0  A4D8               	btfss	status,2,c
  5165   0075F2  EFFD  F03A         	goto	u3191
  5166   0075F6  EFFF  F03A         	goto	u3190
  5167   0075FA                     u3191:
  5168   0075FA  EF07  F03B         	goto	l2718
  5169   0075FE                     u3190:
  5170   0075FE                     
  5171                           ; BSR set to: 0
  5172   0075FE  0E00               	movlw	0
  5173   007600  6F8B               	movwf	___flmul@a& (0+255),b
  5174   007602  0E00               	movlw	0
  5175   007604  6F8C               	movwf	(___flmul@a+1)& (0+255),b
  5176   007606  0E00               	movlw	0
  5177   007608  6F8D               	movwf	(___flmul@a+2)& (0+255),b
  5178   00760A  0E00               	movlw	0
  5179   00760C  6F8E               	movwf	(___flmul@a+3)& (0+255),b
  5180   00760E                     l2718:
  5181                           
  5182                           ; BSR set to: 0
  5183   00760E  8F8D               	bsf	(___flmul@a+2)& (0+255),7,b
  5184   007610  EF12  F03B         	goto	l796
  5185   007614                     l2720:
  5186                           
  5187                           ; BSR set to: 0
  5188   007614  0E00               	movlw	0
  5189   007616  6F8B               	movwf	___flmul@a& (0+255),b
  5190   007618  0E00               	movlw	0
  5191   00761A  6F8C               	movwf	(___flmul@a+1)& (0+255),b
  5192   00761C  0E00               	movlw	0
  5193   00761E  6F8D               	movwf	(___flmul@a+2)& (0+255),b
  5194   007620  0E00               	movlw	0
  5195   007622  6F8E               	movwf	(___flmul@a+3)& (0+255),b
  5196   007624                     l796:
  5197                           
  5198                           ; BSR set to: 0
  5199   007624  5198               	movf	___flmul@aexp& (0+255),w,b
  5200   007626  B4D8               	btfsc	status,2,c
  5201   007628  EF18  F03B         	goto	u3201
  5202   00762C  EF1A  F03B         	goto	u3200
  5203   007630                     u3201:
  5204   007630  EF22  F03B         	goto	l2724
  5205   007634                     u3200:
  5206   007634                     
  5207                           ; BSR set to: 0
  5208   007634  5199               	movf	___flmul@bexp& (0+255),w,b
  5209   007636  A4D8               	btfss	status,2,c
  5210   007638  EF20  F03B         	goto	u3211
  5211   00763C  EF22  F03B         	goto	u3210
  5212   007640                     u3211:
  5213   007640  EF2C  F03B         	goto	l2728
  5214   007644                     u3210:
  5215   007644                     l2724:
  5216                           
  5217                           ; BSR set to: 0
  5218   007644  0E00               	movlw	0
  5219   007646  6F87               	movwf	?___flmul& (0+255),b
  5220   007648  0E00               	movlw	0
  5221   00764A  6F88               	movwf	(?___flmul+1)& (0+255),b
  5222   00764C  0E00               	movlw	0
  5223   00764E  6F89               	movwf	(?___flmul+2)& (0+255),b
  5224   007650  0E00               	movlw	0
  5225   007652  6F8A               	movwf	(?___flmul+3)& (0+255),b
  5226   007654  EFC2  F03C         	goto	l800
  5227   007658                     l2728:
  5228                           
  5229                           ; BSR set to: 0
  5230   007658  518D               	movf	(___flmul@a+2)& (0+255),w,b
  5231   00765A  0387               	mulwf	___flmul@b& (0+255),b
  5232   00765C  CFF3 F09E          	movff	prodl,___flmul@temp
  5233   007660  CFF4 F09F          	movff	prodh,___flmul@temp+1
  5234   007664                     
  5235                           ; BSR set to: 0
  5236   007664  519E               	movf	___flmul@temp& (0+255),w,b
  5237   007666  6F94               	movwf	___flmul@grs& (0+255),b
  5238   007668  6B95               	clrf	(___flmul@grs+1)& (0+255),b
  5239   00766A  6B96               	clrf	(___flmul@grs+2)& (0+255),b
  5240   00766C  6B97               	clrf	(___flmul@grs+3)& (0+255),b
  5241   00766E                     
  5242                           ; BSR set to: 0
  5243   00766E  519F               	movf	(___flmul@temp+1)& (0+255),w,b
  5244   007670  6F9A               	movwf	___flmul@prod& (0+255),b
  5245   007672  6B9B               	clrf	(___flmul@prod+1)& (0+255),b
  5246   007674  6B9C               	clrf	(___flmul@prod+2)& (0+255),b
  5247   007676  6B9D               	clrf	(___flmul@prod+3)& (0+255),b
  5248   007678  518C               	movf	(___flmul@a+1)& (0+255),w,b
  5249   00767A  0388               	mulwf	(___flmul@b+1)& (0+255),b
  5250   00767C  CFF3 F09E          	movff	prodl,___flmul@temp
  5251   007680  CFF4 F09F          	movff	prodh,___flmul@temp+1
  5252   007684                     
  5253                           ; BSR set to: 0
  5254   007684  519E               	movf	___flmul@temp& (0+255),w,b
  5255   007686  2794               	addwf	___flmul@grs& (0+255),f,b
  5256   007688  0E00               	movlw	0
  5257   00768A  2395               	addwfc	(___flmul@grs+1)& (0+255),f,b
  5258   00768C  2396               	addwfc	(___flmul@grs+2)& (0+255),f,b
  5259   00768E  2397               	addwfc	(___flmul@grs+3)& (0+255),f,b
  5260   007690                     
  5261                           ; BSR set to: 0
  5262   007690  519F               	movf	(___flmul@temp+1)& (0+255),w,b
  5263   007692  279A               	addwf	___flmul@prod& (0+255),f,b
  5264   007694  0E00               	movlw	0
  5265   007696  239B               	addwfc	(___flmul@prod+1)& (0+255),f,b
  5266   007698  239C               	addwfc	(___flmul@prod+2)& (0+255),f,b
  5267   00769A  239D               	addwfc	(___flmul@prod+3)& (0+255),f,b
  5268   00769C  518B               	movf	___flmul@a& (0+255),w,b
  5269   00769E  0389               	mulwf	(___flmul@b+2)& (0+255),b
  5270   0076A0  CFF3 F09E          	movff	prodl,___flmul@temp
  5271   0076A4  CFF4 F09F          	movff	prodh,___flmul@temp+1
  5272   0076A8                     
  5273                           ; BSR set to: 0
  5274   0076A8  519E               	movf	___flmul@temp& (0+255),w,b
  5275   0076AA  2794               	addwf	___flmul@grs& (0+255),f,b
  5276   0076AC  0E00               	movlw	0
  5277   0076AE  2395               	addwfc	(___flmul@grs+1)& (0+255),f,b
  5278   0076B0  2396               	addwfc	(___flmul@grs+2)& (0+255),f,b
  5279   0076B2  2397               	addwfc	(___flmul@grs+3)& (0+255),f,b
  5280   0076B4                     
  5281                           ; BSR set to: 0
  5282   0076B4  519F               	movf	(___flmul@temp+1)& (0+255),w,b
  5283   0076B6  279A               	addwf	___flmul@prod& (0+255),f,b
  5284   0076B8  0E00               	movlw	0
  5285   0076BA  239B               	addwfc	(___flmul@prod+1)& (0+255),f,b
  5286   0076BC  239C               	addwfc	(___flmul@prod+2)& (0+255),f,b
  5287   0076BE  239D               	addwfc	(___flmul@prod+3)& (0+255),f,b
  5288   0076C0                     
  5289                           ; BSR set to: 0
  5290   0076C0  C096  F097         	movff	___flmul@grs+2,___flmul@grs+3
  5291   0076C4  C095  F096         	movff	___flmul@grs+1,___flmul@grs+2
  5292   0076C8  C094  F095         	movff	___flmul@grs,___flmul@grs+1
  5293   0076CC  6B94               	clrf	___flmul@grs& (0+255),b
  5294   0076CE                     
  5295                           ; BSR set to: 0
  5296   0076CE  518B               	movf	___flmul@a& (0+255),w,b
  5297   0076D0  0388               	mulwf	(___flmul@b+1)& (0+255),b
  5298   0076D2  CFF3 F09E          	movff	prodl,___flmul@temp
  5299   0076D6  CFF4 F09F          	movff	prodh,___flmul@temp+1
  5300   0076DA                     
  5301                           ; BSR set to: 0
  5302   0076DA  519E               	movf	___flmul@temp& (0+255),w,b
  5303   0076DC  2794               	addwf	___flmul@grs& (0+255),f,b
  5304   0076DE  519F               	movf	(___flmul@temp+1)& (0+255),w,b
  5305   0076E0  2395               	addwfc	(___flmul@grs+1)& (0+255),f,b
  5306   0076E2  0E00               	movlw	0
  5307   0076E4  2396               	addwfc	(___flmul@grs+2)& (0+255),f,b
  5308   0076E6  0E00               	movlw	0
  5309   0076E8  2397               	addwfc	(___flmul@grs+3)& (0+255),f,b
  5310   0076EA                     
  5311                           ; BSR set to: 0
  5312   0076EA  518C               	movf	(___flmul@a+1)& (0+255),w,b
  5313   0076EC  0387               	mulwf	___flmul@b& (0+255),b
  5314   0076EE  CFF3 F09E          	movff	prodl,___flmul@temp
  5315   0076F2  CFF4 F09F          	movff	prodh,___flmul@temp+1
  5316   0076F6                     
  5317                           ; BSR set to: 0
  5318   0076F6  519E               	movf	___flmul@temp& (0+255),w,b
  5319   0076F8  2794               	addwf	___flmul@grs& (0+255),f,b
  5320   0076FA  519F               	movf	(___flmul@temp+1)& (0+255),w,b
  5321   0076FC  2395               	addwfc	(___flmul@grs+1)& (0+255),f,b
  5322   0076FE  0E00               	movlw	0
  5323   007700  2396               	addwfc	(___flmul@grs+2)& (0+255),f,b
  5324   007702  0E00               	movlw	0
  5325   007704  2397               	addwfc	(___flmul@grs+3)& (0+255),f,b
  5326   007706                     
  5327                           ; BSR set to: 0
  5328   007706  C096  F097         	movff	___flmul@grs+2,___flmul@grs+3
  5329   00770A  C095  F096         	movff	___flmul@grs+1,___flmul@grs+2
  5330   00770E  C094  F095         	movff	___flmul@grs,___flmul@grs+1
  5331   007712  6B94               	clrf	___flmul@grs& (0+255),b
  5332   007714  518B               	movf	___flmul@a& (0+255),w,b
  5333   007716  0387               	mulwf	___flmul@b& (0+255),b
  5334   007718  CFF3 F09E          	movff	prodl,___flmul@temp
  5335   00771C  CFF4 F09F          	movff	prodh,___flmul@temp+1
  5336   007720                     
  5337                           ; BSR set to: 0
  5338   007720  519E               	movf	___flmul@temp& (0+255),w,b
  5339   007722  2794               	addwf	___flmul@grs& (0+255),f,b
  5340   007724  519F               	movf	(___flmul@temp+1)& (0+255),w,b
  5341   007726  2395               	addwfc	(___flmul@grs+1)& (0+255),f,b
  5342   007728  0E00               	movlw	0
  5343   00772A  2396               	addwfc	(___flmul@grs+2)& (0+255),f,b
  5344   00772C  0E00               	movlw	0
  5345   00772E  2397               	addwfc	(___flmul@grs+3)& (0+255),f,b
  5346   007730                     
  5347                           ; BSR set to: 0
  5348   007730  518D               	movf	(___flmul@a+2)& (0+255),w,b
  5349   007732  0388               	mulwf	(___flmul@b+1)& (0+255),b
  5350   007734  CFF3 F09E          	movff	prodl,___flmul@temp
  5351   007738  CFF4 F09F          	movff	prodh,___flmul@temp+1
  5352   00773C  519E               	movf	___flmul@temp& (0+255),w,b
  5353   00773E  279A               	addwf	___flmul@prod& (0+255),f,b
  5354   007740  519F               	movf	(___flmul@temp+1)& (0+255),w,b
  5355   007742  239B               	addwfc	(___flmul@prod+1)& (0+255),f,b
  5356   007744  0E00               	movlw	0
  5357   007746  239C               	addwfc	(___flmul@prod+2)& (0+255),f,b
  5358   007748  0E00               	movlw	0
  5359   00774A  239D               	addwfc	(___flmul@prod+3)& (0+255),f,b
  5360   00774C                     
  5361                           ; BSR set to: 0
  5362   00774C  518C               	movf	(___flmul@a+1)& (0+255),w,b
  5363   00774E  0389               	mulwf	(___flmul@b+2)& (0+255),b
  5364   007750  CFF3 F09E          	movff	prodl,___flmul@temp
  5365   007754  CFF4 F09F          	movff	prodh,___flmul@temp+1
  5366   007758                     
  5367                           ; BSR set to: 0
  5368   007758  519E               	movf	___flmul@temp& (0+255),w,b
  5369   00775A  279A               	addwf	___flmul@prod& (0+255),f,b
  5370   00775C  519F               	movf	(___flmul@temp+1)& (0+255),w,b
  5371   00775E  239B               	addwfc	(___flmul@prod+1)& (0+255),f,b
  5372   007760  0E00               	movlw	0
  5373   007762  239C               	addwfc	(___flmul@prod+2)& (0+255),f,b
  5374   007764  0E00               	movlw	0
  5375   007766  239D               	addwfc	(___flmul@prod+3)& (0+255),f,b
  5376   007768  518D               	movf	(___flmul@a+2)& (0+255),w,b
  5377   00776A  0389               	mulwf	(___flmul@b+2)& (0+255),b
  5378   00776C  CFF3 F09E          	movff	prodl,___flmul@temp
  5379   007770  CFF4 F09F          	movff	prodh,___flmul@temp+1
  5380   007774                     
  5381                           ; BSR set to: 0
  5382   007774  519E               	movf	___flmul@temp& (0+255),w,b
  5383   007776  6F8F               	movwf	??___flmul& (0+255),b
  5384   007778  519F               	movf	(___flmul@temp+1)& (0+255),w,b
  5385   00777A  6F90               	movwf	(??___flmul+1)& (0+255),b
  5386   00777C  6B91               	clrf	(??___flmul+2)& (0+255),b
  5387   00777E  6B92               	clrf	(??___flmul+3)& (0+255),b
  5388   007780  C091  F092         	movff	??___flmul+2,??___flmul+3
  5389   007784  C090  F091         	movff	??___flmul+1,??___flmul+2
  5390   007788  C08F  F090         	movff	??___flmul,??___flmul+1
  5391   00778C  6B8F               	clrf	??___flmul& (0+255),b
  5392   00778E  518F               	movf	??___flmul& (0+255),w,b
  5393   007790  279A               	addwf	___flmul@prod& (0+255),f,b
  5394   007792  5190               	movf	(??___flmul+1)& (0+255),w,b
  5395   007794  239B               	addwfc	(___flmul@prod+1)& (0+255),f,b
  5396   007796  5191               	movf	(??___flmul+2)& (0+255),w,b
  5397   007798  239C               	addwfc	(___flmul@prod+2)& (0+255),f,b
  5398   00779A  5192               	movf	(??___flmul+3)& (0+255),w,b
  5399   00779C  239D               	addwfc	(___flmul@prod+3)& (0+255),f,b
  5400   00779E                     
  5401                           ; BSR set to: 0
  5402   00779E  C094  F08F         	movff	___flmul@grs,??___flmul
  5403   0077A2  C095  F090         	movff	___flmul@grs+1,??___flmul+1
  5404   0077A6  C096  F091         	movff	___flmul@grs+2,??___flmul+2
  5405   0077AA  C097  F092         	movff	___flmul@grs+3,??___flmul+3
  5406   0077AE  0E19               	movlw	25
  5407   0077B0  EFDF  F03B         	goto	u3220
  5408   0077B4                     u3225:
  5409   0077B4  90D8               	bcf	status,0,c
  5410   0077B6  3392               	rrcf	(??___flmul+3)& (0+255),f,b
  5411   0077B8  3391               	rrcf	(??___flmul+2)& (0+255),f,b
  5412   0077BA  3390               	rrcf	(??___flmul+1)& (0+255),f,b
  5413   0077BC  338F               	rrcf	??___flmul& (0+255),f,b
  5414   0077BE                     u3220:
  5415   0077BE  2EE8               	decfsz	wreg,f,c
  5416   0077C0  EFDA  F03B         	goto	u3225
  5417   0077C4  518F               	movf	??___flmul& (0+255),w,b
  5418   0077C6  279A               	addwf	___flmul@prod& (0+255),f,b
  5419   0077C8  5190               	movf	(??___flmul+1)& (0+255),w,b
  5420   0077CA  239B               	addwfc	(___flmul@prod+1)& (0+255),f,b
  5421   0077CC  5191               	movf	(??___flmul+2)& (0+255),w,b
  5422   0077CE  239C               	addwfc	(___flmul@prod+2)& (0+255),f,b
  5423   0077D0  5192               	movf	(??___flmul+3)& (0+255),w,b
  5424   0077D2  239D               	addwfc	(___flmul@prod+3)& (0+255),f,b
  5425   0077D4                     
  5426                           ; BSR set to: 0
  5427   0077D4  C096  F097         	movff	___flmul@grs+2,___flmul@grs+3
  5428   0077D8  C095  F096         	movff	___flmul@grs+1,___flmul@grs+2
  5429   0077DC  C094  F095         	movff	___flmul@grs,___flmul@grs+1
  5430   0077E0  6B94               	clrf	___flmul@grs& (0+255),b
  5431   0077E2                     
  5432                           ; BSR set to: 0
  5433   0077E2  5198               	movf	___flmul@aexp& (0+255),w,b
  5434   0077E4  C099  F08F         	movff	___flmul@bexp,??___flmul
  5435   0077E8  6B90               	clrf	(??___flmul+1)& (0+255),b
  5436   0077EA  278F               	addwf	??___flmul& (0+255),f,b
  5437   0077EC  0E00               	movlw	0
  5438   0077EE  2390               	addwfc	(??___flmul+1)& (0+255),f,b
  5439   0077F0  0E82               	movlw	130
  5440   0077F2  258F               	addwf	??___flmul& (0+255),w,b
  5441   0077F4  6F9E               	movwf	___flmul@temp& (0+255),b
  5442   0077F6  0EFF               	movlw	255
  5443   0077F8  2190               	addwfc	(??___flmul+1)& (0+255),w,b
  5444   0077FA  6F9F               	movwf	(___flmul@temp+1)& (0+255),b
  5445   0077FC  EF15  F03C         	goto	l2776
  5446   007800                     l2770:
  5447                           
  5448                           ; BSR set to: 0
  5449   007800  90D8               	bcf	status,0,c
  5450   007802  379A               	rlcf	___flmul@prod& (0+255),f,b
  5451   007804  379B               	rlcf	(___flmul@prod+1)& (0+255),f,b
  5452   007806  379C               	rlcf	(___flmul@prod+2)& (0+255),f,b
  5453   007808  379D               	rlcf	(___flmul@prod+3)& (0+255),f,b
  5454   00780A                     
  5455                           ; BSR set to: 0
  5456   00780A  AF97               	btfss	(___flmul@grs+3)& (0+255),7,b
  5457   00780C  EF0A  F03C         	goto	u3231
  5458   007810  EF0C  F03C         	goto	u3230
  5459   007814                     u3231:
  5460   007814  EF0D  F03C         	goto	l803
  5461   007818                     u3230:
  5462   007818                     
  5463                           ; BSR set to: 0
  5464   007818  819A               	bsf	___flmul@prod& (0+255),0,b
  5465   00781A                     l803:
  5466                           
  5467                           ; BSR set to: 0
  5468   00781A  90D8               	bcf	status,0,c
  5469   00781C  3794               	rlcf	___flmul@grs& (0+255),f,b
  5470   00781E  3795               	rlcf	(___flmul@grs+1)& (0+255),f,b
  5471   007820  3796               	rlcf	(___flmul@grs+2)& (0+255),f,b
  5472   007822  3797               	rlcf	(___flmul@grs+3)& (0+255),f,b
  5473   007824  079E               	decf	___flmul@temp& (0+255),f,b
  5474   007826  A0D8               	btfss	status,0,c
  5475   007828  079F               	decf	(___flmul@temp+1)& (0+255),f,b
  5476   00782A                     l2776:
  5477                           
  5478                           ; BSR set to: 0
  5479   00782A  AF9C               	btfss	(___flmul@prod+2)& (0+255),7,b
  5480   00782C  EF1A  F03C         	goto	u3241
  5481   007830  EF1C  F03C         	goto	u3240
  5482   007834                     u3241:
  5483   007834  EF00  F03C         	goto	l2770
  5484   007838                     u3240:
  5485   007838                     
  5486                           ; BSR set to: 0
  5487   007838  6B98               	clrf	___flmul@aexp& (0+255),b
  5488   00783A  AF97               	btfss	(___flmul@grs+3)& (0+255),7,b
  5489   00783C  EF22  F03C         	goto	u3251
  5490   007840  EF24  F03C         	goto	u3250
  5491   007844                     u3251:
  5492   007844  EF48  F03C         	goto	l805
  5493   007848                     u3250:
  5494   007848                     
  5495                           ; BSR set to: 0
  5496   007848  0EFF               	movlw	255
  5497   00784A  1594               	andwf	___flmul@grs& (0+255),w,b
  5498   00784C  6F8F               	movwf	??___flmul& (0+255),b
  5499   00784E  0EFF               	movlw	255
  5500   007850  1595               	andwf	(___flmul@grs+1)& (0+255),w,b
  5501   007852  6F90               	movwf	(??___flmul+1)& (0+255),b
  5502   007854  0EFF               	movlw	255
  5503   007856  1596               	andwf	(___flmul@grs+2)& (0+255),w,b
  5504   007858  6F91               	movwf	(??___flmul+2)& (0+255),b
  5505   00785A  0E7F               	movlw	127
  5506   00785C  1597               	andwf	(___flmul@grs+3)& (0+255),w,b
  5507   00785E  6F92               	movwf	(??___flmul+3)& (0+255),b
  5508   007860  518F               	movf	??___flmul& (0+255),w,b
  5509   007862  1190               	iorwf	(??___flmul+1)& (0+255),w,b
  5510   007864  1191               	iorwf	(??___flmul+2)& (0+255),w,b
  5511   007866  1192               	iorwf	(??___flmul+3)& (0+255),w,b
  5512   007868  B4D8               	btfsc	status,2,c
  5513   00786A  EF39  F03C         	goto	u3261
  5514   00786E  EF3B  F03C         	goto	u3260
  5515   007872                     u3261:
  5516   007872  EF3F  F03C         	goto	l806
  5517   007876                     u3260:
  5518   007876                     l2780:
  5519                           
  5520                           ; BSR set to: 0
  5521   007876  0E01               	movlw	1
  5522   007878  6F98               	movwf	___flmul@aexp& (0+255),b
  5523   00787A  EF48  F03C         	goto	l805
  5524   00787E                     l806:
  5525                           
  5526                           ; BSR set to: 0
  5527   00787E  A19A               	btfss	___flmul@prod& (0+255),0,b
  5528   007880  EF44  F03C         	goto	u3271
  5529   007884  EF46  F03C         	goto	u3270
  5530   007888                     u3271:
  5531   007888  EF48  F03C         	goto	l805
  5532   00788C                     u3270:
  5533   00788C  EF3B  F03C         	goto	l2780
  5534   007890                     l805:
  5535                           
  5536                           ; BSR set to: 0
  5537   007890  5198               	movf	___flmul@aexp& (0+255),w,b
  5538   007892  B4D8               	btfsc	status,2,c
  5539   007894  EF4E  F03C         	goto	u3281
  5540   007898  EF50  F03C         	goto	u3280
  5541   00789C                     u3281:
  5542   00789C  EF74  F03C         	goto	l2792
  5543   0078A0                     u3280:
  5544   0078A0                     
  5545                           ; BSR set to: 0
  5546   0078A0  0E01               	movlw	1
  5547   0078A2  279A               	addwf	___flmul@prod& (0+255),f,b
  5548   0078A4  0E00               	movlw	0
  5549   0078A6  239B               	addwfc	(___flmul@prod+1)& (0+255),f,b
  5550   0078A8  239C               	addwfc	(___flmul@prod+2)& (0+255),f,b
  5551   0078AA  239D               	addwfc	(___flmul@prod+3)& (0+255),f,b
  5552   0078AC                     
  5553                           ; BSR set to: 0
  5554   0078AC  A19D               	btfss	(___flmul@prod+3)& (0+255),0,b
  5555   0078AE  EF5B  F03C         	goto	u3291
  5556   0078B2  EF5D  F03C         	goto	u3290
  5557   0078B6                     u3291:
  5558   0078B6  EF74  F03C         	goto	l2792
  5559   0078BA                     u3290:
  5560   0078BA                     
  5561                           ; BSR set to: 0
  5562   0078BA  C09A  F08F         	movff	___flmul@prod,??___flmul
  5563   0078BE  C09B  F090         	movff	___flmul@prod+1,??___flmul+1
  5564   0078C2  C09C  F091         	movff	___flmul@prod+2,??___flmul+2
  5565   0078C6  C09D  F092         	movff	___flmul@prod+3,??___flmul+3
  5566   0078CA  3592               	rlcf	(??___flmul+3)& (0+255),w,b
  5567   0078CC  3392               	rrcf	(??___flmul+3)& (0+255),f,b
  5568   0078CE  3391               	rrcf	(??___flmul+2)& (0+255),f,b
  5569   0078D0  3390               	rrcf	(??___flmul+1)& (0+255),f,b
  5570   0078D2  338F               	rrcf	??___flmul& (0+255),f,b
  5571   0078D4  C08F  F09A         	movff	??___flmul,___flmul@prod
  5572   0078D8  C090  F09B         	movff	??___flmul+1,___flmul@prod+1
  5573   0078DC  C091  F09C         	movff	??___flmul+2,___flmul@prod+2
  5574   0078E0  C092  F09D         	movff	??___flmul+3,___flmul@prod+3
  5575   0078E4                     
  5576                           ; BSR set to: 0
  5577   0078E4  4B9E               	infsnz	___flmul@temp& (0+255),f,b
  5578   0078E6  2B9F               	incf	(___flmul@temp+1)& (0+255),f,b
  5579   0078E8                     l2792:
  5580                           
  5581                           ; BSR set to: 0
  5582   0078E8  BF9F               	btfsc	(___flmul@temp+1)& (0+255),7,b
  5583   0078EA  EF7F  F03C         	goto	u3301
  5584   0078EE  519F               	movf	(___flmul@temp+1)& (0+255),w,b
  5585   0078F0  E108               	bnz	u3300
  5586   0078F2  299E               	incf	___flmul@temp& (0+255),w,b
  5587   0078F4  A0D8               	btfss	status,0,c
  5588   0078F6  EF7F  F03C         	goto	u3301
  5589   0078FA  EF81  F03C         	goto	u3300
  5590   0078FE                     u3301:
  5591   0078FE  EF8B  F03C         	goto	l2796
  5592   007902                     u3300:
  5593   007902                     
  5594                           ; BSR set to: 0
  5595   007902  0E00               	movlw	0
  5596   007904  6F9A               	movwf	___flmul@prod& (0+255),b
  5597   007906  0E00               	movlw	0
  5598   007908  6F9B               	movwf	(___flmul@prod+1)& (0+255),b
  5599   00790A  0E80               	movlw	128
  5600   00790C  6F9C               	movwf	(___flmul@prod+2)& (0+255),b
  5601   00790E  0E7F               	movlw	127
  5602   007910  6F9D               	movwf	(___flmul@prod+3)& (0+255),b
  5603   007912  EFB8  F03C         	goto	l2810
  5604   007916                     l2796:
  5605                           
  5606                           ; BSR set to: 0
  5607   007916  BF9F               	btfsc	(___flmul@temp+1)& (0+255),7,b
  5608   007918  EF98  F03C         	goto	u3310
  5609   00791C  519F               	movf	(___flmul@temp+1)& (0+255),w,b
  5610   00791E  E106               	bnz	u3311
  5611   007920  059E               	decf	___flmul@temp& (0+255),w,b
  5612   007922  B0D8               	btfsc	status,0,c
  5613   007924  EF96  F03C         	goto	u3311
  5614   007928  EF98  F03C         	goto	u3310
  5615   00792C                     u3311:
  5616   00792C  EFA3  F03C         	goto	l813
  5617   007930                     u3310:
  5618   007930                     
  5619                           ; BSR set to: 0
  5620   007930  0E00               	movlw	0
  5621   007932  6F9A               	movwf	___flmul@prod& (0+255),b
  5622   007934  0E00               	movlw	0
  5623   007936  6F9B               	movwf	(___flmul@prod+1)& (0+255),b
  5624   007938  0E00               	movlw	0
  5625   00793A  6F9C               	movwf	(___flmul@prod+2)& (0+255),b
  5626   00793C  0E00               	movlw	0
  5627   00793E  6F9D               	movwf	(___flmul@prod+3)& (0+255),b
  5628   007940                     
  5629                           ; BSR set to: 0
  5630   007940  6B93               	clrf	___flmul@sign& (0+255),b
  5631   007942  EFB8  F03C         	goto	l2810
  5632   007946                     l813:
  5633                           
  5634                           ; BSR set to: 0
  5635   007946  C09E  F099         	movff	___flmul@temp,___flmul@bexp
  5636   00794A                     
  5637                           ; BSR set to: 0
  5638   00794A  0EFF               	movlw	255
  5639   00794C  179A               	andwf	___flmul@prod& (0+255),f,b
  5640   00794E  0EFF               	movlw	255
  5641   007950  179B               	andwf	(___flmul@prod+1)& (0+255),f,b
  5642   007952  0E7F               	movlw	127
  5643   007954  179C               	andwf	(___flmul@prod+2)& (0+255),f,b
  5644   007956  0E00               	movlw	0
  5645   007958  179D               	andwf	(___flmul@prod+3)& (0+255),f,b
  5646   00795A                     
  5647                           ; BSR set to: 0
  5648   00795A  A199               	btfss	___flmul@bexp& (0+255),0,b
  5649   00795C  EFB2  F03C         	goto	u3321
  5650   007960  EFB4  F03C         	goto	u3320
  5651   007964                     u3321:
  5652   007964  EFB5  F03C         	goto	l2808
  5653   007968                     u3320:
  5654   007968                     
  5655                           ; BSR set to: 0
  5656   007968  8F9C               	bsf	(___flmul@prod+2)& (0+255),7,b
  5657   00796A                     l2808:
  5658                           
  5659                           ; BSR set to: 0
  5660   00796A  90D8               	bcf	status,0,c
  5661   00796C  3199               	rrcf	___flmul@bexp& (0+255),w,b
  5662   00796E  6F9D               	movwf	(___flmul@prod+3)& (0+255),b
  5663   007970                     l2810:
  5664                           
  5665                           ; BSR set to: 0
  5666   007970  5193               	movf	___flmul@sign& (0+255),w,b
  5667   007972  139D               	iorwf	(___flmul@prod+3)& (0+255),f,b
  5668   007974                     
  5669                           ; BSR set to: 0
  5670   007974  C09A  F087         	movff	___flmul@prod,?___flmul
  5671   007978  C09B  F088         	movff	___flmul@prod+1,?___flmul+1
  5672   00797C  C09C  F089         	movff	___flmul@prod+2,?___flmul+2
  5673   007980  C09D  F08A         	movff	___flmul@prod+3,?___flmul+3
  5674   007984                     l800:
  5675                           
  5676                           ; BSR set to: 0
  5677   007984  0012               	return		;funcret
  5678   007986                     __end_of___flmul:
  5679                           	callstack 0
  5680                           
  5681 ;; *************** function ___awmod *****************
  5682 ;; Defined at:
  5683 ;;		line 7 in file "/opt/microchip/xc8/v3.00/pic/sources/c99/common/awmod.c"
  5684 ;; Parameters:    Size  Location     Type
  5685 ;;  dividend        2    0[BANK0 ] int 
  5686 ;;  divisor         2    2[BANK0 ] int 
  5687 ;; Auto vars:     Size  Location     Type
  5688 ;;  sign            1    5[BANK0 ] unsigned char 
  5689 ;;  counter         1    4[BANK0 ] unsigned char 
  5690 ;; Return value:  Size  Location     Type
  5691 ;;                  2    0[BANK0 ] int 
  5692 ;; Registers used:
  5693 ;;		wreg, status,2, status,0
  5694 ;; Tracked objects:
  5695 ;;		On entry : 0/0
  5696 ;;		On exit  : 0/0
  5697 ;;		Unchanged: 0/0
  5698 ;; Data sizes:     COMRAM   BANK0   BANK1   BANK2   BANK3   BANK4   BANK5
  5699 ;;      Params:         0       4       0       0       0       0       0
  5700 ;;      Locals:         0       2       0       0       0       0       0
  5701 ;;      Temps:          0       0       0       0       0       0       0
  5702 ;;      Totals:         0       6       0       0       0       0       0
  5703 ;;Total ram usage:        6 bytes
  5704 ;; Hardware stack levels used: 1
  5705 ;; Hardware stack levels required when called: 6
  5706 ;; This function calls:
  5707 ;;		Nothing
  5708 ;; This function is called by:
  5709 ;;		_displayTemperatura
  5710 ;; This function uses a non-reentrant model
  5711 ;;
  5712                           
  5713                           	psect	text19
  5714   0061B8                     __ptext19:
  5715                           	callstack 0
  5716   0061B8                     ___awmod:
  5717                           	callstack 23
  5718   0061B8  0100               	movlb	0	; () banked
  5719   0061BA  6B65               	clrf	___awmod@sign& (0+255),b
  5720   0061BC                     
  5721                           ; BSR set to: 0
  5722   0061BC  BF61               	btfsc	(___awmod@dividend+1)& (0+255),7,b
  5723   0061BE  EFE5  F030         	goto	u3390
  5724   0061C2  EFE3  F030         	goto	u3391
  5725   0061C6                     u3391:
  5726   0061C6  EFEB  F030         	goto	l2874
  5727   0061CA                     u3390:
  5728   0061CA                     
  5729                           ; BSR set to: 0
  5730   0061CA  6D60               	negf	___awmod@dividend& (0+255),b
  5731   0061CC  1F61               	comf	(___awmod@dividend+1)& (0+255),f,b
  5732   0061CE  B0D8               	btfsc	status,0,c
  5733   0061D0  2B61               	incf	(___awmod@dividend+1)& (0+255),f,b
  5734   0061D2                     
  5735                           ; BSR set to: 0
  5736   0061D2  0E01               	movlw	1
  5737   0061D4  6F65               	movwf	___awmod@sign& (0+255),b
  5738   0061D6                     l2874:
  5739                           
  5740                           ; BSR set to: 0
  5741   0061D6  BF63               	btfsc	(___awmod@divisor+1)& (0+255),7,b
  5742   0061D8  EFF2  F030         	goto	u3400
  5743   0061DC  EFF0  F030         	goto	u3401
  5744   0061E0                     u3401:
  5745   0061E0  EFF6  F030         	goto	l2878
  5746   0061E4                     u3400:
  5747   0061E4                     
  5748                           ; BSR set to: 0
  5749   0061E4  6D62               	negf	___awmod@divisor& (0+255),b
  5750   0061E6  1F63               	comf	(___awmod@divisor+1)& (0+255),f,b
  5751   0061E8  B0D8               	btfsc	status,0,c
  5752   0061EA  2B63               	incf	(___awmod@divisor+1)& (0+255),f,b
  5753   0061EC                     l2878:
  5754                           
  5755                           ; BSR set to: 0
  5756   0061EC  5162               	movf	___awmod@divisor& (0+255),w,b
  5757   0061EE  1163               	iorwf	(___awmod@divisor+1)& (0+255),w,b
  5758   0061F0  B4D8               	btfsc	status,2,c
  5759   0061F2  EFFD  F030         	goto	u3411
  5760   0061F6  EFFF  F030         	goto	u3410
  5761   0061FA                     u3411:
  5762   0061FA  EF23  F031         	goto	l2894
  5763   0061FE                     u3410:
  5764   0061FE                     
  5765                           ; BSR set to: 0
  5766   0061FE  0E01               	movlw	1
  5767   006200  6F64               	movwf	___awmod@counter& (0+255),b
  5768   006202  EF07  F031         	goto	l2884
  5769   006206                     l2882:
  5770                           
  5771                           ; BSR set to: 0
  5772   006206  90D8               	bcf	status,0,c
  5773   006208  3762               	rlcf	___awmod@divisor& (0+255),f,b
  5774   00620A  3763               	rlcf	(___awmod@divisor+1)& (0+255),f,b
  5775   00620C  2B64               	incf	___awmod@counter& (0+255),f,b
  5776   00620E                     l2884:
  5777                           
  5778                           ; BSR set to: 0
  5779   00620E  AF63               	btfss	(___awmod@divisor+1)& (0+255),7,b
  5780   006210  EF0C  F031         	goto	u3421
  5781   006214  EF0E  F031         	goto	u3420
  5782   006218                     u3421:
  5783   006218  EF03  F031         	goto	l2882
  5784   00621C                     u3420:
  5785   00621C                     l2886:
  5786                           
  5787                           ; BSR set to: 0
  5788   00621C  5162               	movf	___awmod@divisor& (0+255),w,b
  5789   00621E  5D60               	subwf	___awmod@dividend& (0+255),w,b
  5790   006220  5163               	movf	(___awmod@divisor+1)& (0+255),w,b
  5791   006222  5961               	subwfb	(___awmod@dividend+1)& (0+255),w,b
  5792   006224  A0D8               	btfss	status,0,c
  5793   006226  EF17  F031         	goto	u3431
  5794   00622A  EF19  F031         	goto	u3430
  5795   00622E                     u3431:
  5796   00622E  EF1D  F031         	goto	l2890
  5797   006232                     u3430:
  5798   006232                     
  5799                           ; BSR set to: 0
  5800   006232  5162               	movf	___awmod@divisor& (0+255),w,b
  5801   006234  5F60               	subwf	___awmod@dividend& (0+255),f,b
  5802   006236  5163               	movf	(___awmod@divisor+1)& (0+255),w,b
  5803   006238  5B61               	subwfb	(___awmod@dividend+1)& (0+255),f,b
  5804   00623A                     l2890:
  5805                           
  5806                           ; BSR set to: 0
  5807   00623A  90D8               	bcf	status,0,c
  5808   00623C  3363               	rrcf	(___awmod@divisor+1)& (0+255),f,b
  5809   00623E  3362               	rrcf	___awmod@divisor& (0+255),f,b
  5810   006240                     
  5811                           ; BSR set to: 0
  5812   006240  2F64               	decfsz	___awmod@counter& (0+255),f,b
  5813   006242  EF0E  F031         	goto	l2886
  5814   006246                     l2894:
  5815                           
  5816                           ; BSR set to: 0
  5817   006246  5165               	movf	___awmod@sign& (0+255),w,b
  5818   006248  B4D8               	btfsc	status,2,c
  5819   00624A  EF29  F031         	goto	u3441
  5820   00624E  EF2B  F031         	goto	u3440
  5821   006252                     u3441:
  5822   006252  EF2F  F031         	goto	l2898
  5823   006256                     u3440:
  5824   006256                     
  5825                           ; BSR set to: 0
  5826   006256  6D60               	negf	___awmod@dividend& (0+255),b
  5827   006258  1F61               	comf	(___awmod@dividend+1)& (0+255),f,b
  5828   00625A  B0D8               	btfsc	status,0,c
  5829   00625C  2B61               	incf	(___awmod@dividend+1)& (0+255),f,b
  5830   00625E                     l2898:
  5831                           
  5832                           ; BSR set to: 0
  5833   00625E  C060  F060         	movff	___awmod@dividend,?___awmod
  5834   006262  C061  F061         	movff	___awmod@dividend+1,?___awmod+1
  5835   006266                     
  5836                           ; BSR set to: 0
  5837   006266  0012               	return		;funcret
  5838   006268                     __end_of___awmod:
  5839                           	callstack 0
  5840                           
  5841 ;; *************** function ___awdiv *****************
  5842 ;; Defined at:
  5843 ;;		line 7 in file "/opt/microchip/xc8/v3.00/pic/sources/c99/common/awdiv.c"
  5844 ;; Parameters:    Size  Location     Type
  5845 ;;  dividend        2    0[BANK0 ] int 
  5846 ;;  divisor         2    2[BANK0 ] int 
  5847 ;; Auto vars:     Size  Location     Type
  5848 ;;  quotient        2    6[BANK0 ] int 
  5849 ;;  sign            1    5[BANK0 ] unsigned char 
  5850 ;;  counter         1    4[BANK0 ] unsigned char 
  5851 ;; Return value:  Size  Location     Type
  5852 ;;                  2    0[BANK0 ] int 
  5853 ;; Registers used:
  5854 ;;		wreg, status,2, status,0
  5855 ;; Tracked objects:
  5856 ;;		On entry : 0/0
  5857 ;;		On exit  : 0/0
  5858 ;;		Unchanged: 0/0
  5859 ;; Data sizes:     COMRAM   BANK0   BANK1   BANK2   BANK3   BANK4   BANK5
  5860 ;;      Params:         0       4       0       0       0       0       0
  5861 ;;      Locals:         0       4       0       0       0       0       0
  5862 ;;      Temps:          0       0       0       0       0       0       0
  5863 ;;      Totals:         0       8       0       0       0       0       0
  5864 ;;Total ram usage:        8 bytes
  5865 ;; Hardware stack levels used: 1
  5866 ;; Hardware stack levels required when called: 6
  5867 ;; This function calls:
  5868 ;;		Nothing
  5869 ;; This function is called by:
  5870 ;;		_displayTemperatura
  5871 ;; This function uses a non-reentrant model
  5872 ;;
  5873                           
  5874                           	psect	text20
  5875   00632A                     __ptext20:
  5876                           	callstack 0
  5877   00632A                     ___awdiv:
  5878                           	callstack 23
  5879   00632A  0100               	movlb	0	; () banked
  5880   00632C  6B65               	clrf	___awdiv@sign& (0+255),b
  5881   00632E                     
  5882                           ; BSR set to: 0
  5883   00632E  BF63               	btfsc	(___awdiv@divisor+1)& (0+255),7,b
  5884   006330  EF9E  F031         	goto	u3330
  5885   006334  EF9C  F031         	goto	u3331
  5886   006338                     u3331:
  5887   006338  EFA4  F031         	goto	l2830
  5888   00633C                     u3330:
  5889   00633C                     
  5890                           ; BSR set to: 0
  5891   00633C  6D62               	negf	___awdiv@divisor& (0+255),b
  5892   00633E  1F63               	comf	(___awdiv@divisor+1)& (0+255),f,b
  5893   006340  B0D8               	btfsc	status,0,c
  5894   006342  2B63               	incf	(___awdiv@divisor+1)& (0+255),f,b
  5895   006344                     
  5896                           ; BSR set to: 0
  5897   006344  0E01               	movlw	1
  5898   006346  6F65               	movwf	___awdiv@sign& (0+255),b
  5899   006348                     l2830:
  5900                           
  5901                           ; BSR set to: 0
  5902   006348  BF61               	btfsc	(___awdiv@dividend+1)& (0+255),7,b
  5903   00634A  EFAB  F031         	goto	u3340
  5904   00634E  EFA9  F031         	goto	u3341
  5905   006352                     u3341:
  5906   006352  EFB1  F031         	goto	l2836
  5907   006356                     u3340:
  5908   006356                     
  5909                           ; BSR set to: 0
  5910   006356  6D60               	negf	___awdiv@dividend& (0+255),b
  5911   006358  1F61               	comf	(___awdiv@dividend+1)& (0+255),f,b
  5912   00635A  B0D8               	btfsc	status,0,c
  5913   00635C  2B61               	incf	(___awdiv@dividend+1)& (0+255),f,b
  5914   00635E                     
  5915                           ; BSR set to: 0
  5916   00635E  0E01               	movlw	1
  5917   006360  1B65               	xorwf	___awdiv@sign& (0+255),f,b
  5918   006362                     l2836:
  5919                           
  5920                           ; BSR set to: 0
  5921   006362  0E00               	movlw	0
  5922   006364  6F67               	movwf	(___awdiv@quotient+1)& (0+255),b
  5923   006366  0E00               	movlw	0
  5924   006368  6F66               	movwf	___awdiv@quotient& (0+255),b
  5925   00636A                     
  5926                           ; BSR set to: 0
  5927   00636A  5162               	movf	___awdiv@divisor& (0+255),w,b
  5928   00636C  1163               	iorwf	(___awdiv@divisor+1)& (0+255),w,b
  5929   00636E  B4D8               	btfsc	status,2,c
  5930   006370  EFBC  F031         	goto	u3351
  5931   006374  EFBE  F031         	goto	u3350
  5932   006378                     u3351:
  5933   006378  EFE6  F031         	goto	l2858
  5934   00637C                     u3350:
  5935   00637C                     
  5936                           ; BSR set to: 0
  5937   00637C  0E01               	movlw	1
  5938   00637E  6F64               	movwf	___awdiv@counter& (0+255),b
  5939   006380  EFC6  F031         	goto	l2844
  5940   006384                     l2842:
  5941                           
  5942                           ; BSR set to: 0
  5943   006384  90D8               	bcf	status,0,c
  5944   006386  3762               	rlcf	___awdiv@divisor& (0+255),f,b
  5945   006388  3763               	rlcf	(___awdiv@divisor+1)& (0+255),f,b
  5946   00638A  2B64               	incf	___awdiv@counter& (0+255),f,b
  5947   00638C                     l2844:
  5948                           
  5949                           ; BSR set to: 0
  5950   00638C  AF63               	btfss	(___awdiv@divisor+1)& (0+255),7,b
  5951   00638E  EFCB  F031         	goto	u3361
  5952   006392  EFCD  F031         	goto	u3360
  5953   006396                     u3361:
  5954   006396  EFC2  F031         	goto	l2842
  5955   00639A                     u3360:
  5956   00639A                     l2846:
  5957                           
  5958                           ; BSR set to: 0
  5959   00639A  90D8               	bcf	status,0,c
  5960   00639C  3766               	rlcf	___awdiv@quotient& (0+255),f,b
  5961   00639E  3767               	rlcf	(___awdiv@quotient+1)& (0+255),f,b
  5962   0063A0                     
  5963                           ; BSR set to: 0
  5964   0063A0  5162               	movf	___awdiv@divisor& (0+255),w,b
  5965   0063A2  5D60               	subwf	___awdiv@dividend& (0+255),w,b
  5966   0063A4  5163               	movf	(___awdiv@divisor+1)& (0+255),w,b
  5967   0063A6  5961               	subwfb	(___awdiv@dividend+1)& (0+255),w,b
  5968   0063A8  A0D8               	btfss	status,0,c
  5969   0063AA  EFD9  F031         	goto	u3371
  5970   0063AE  EFDB  F031         	goto	u3370
  5971   0063B2                     u3371:
  5972   0063B2  EFE0  F031         	goto	l2854
  5973   0063B6                     u3370:
  5974   0063B6                     
  5975                           ; BSR set to: 0
  5976   0063B6  5162               	movf	___awdiv@divisor& (0+255),w,b
  5977   0063B8  5F60               	subwf	___awdiv@dividend& (0+255),f,b
  5978   0063BA  5163               	movf	(___awdiv@divisor+1)& (0+255),w,b
  5979   0063BC  5B61               	subwfb	(___awdiv@dividend+1)& (0+255),f,b
  5980   0063BE                     
  5981                           ; BSR set to: 0
  5982   0063BE  8166               	bsf	___awdiv@quotient& (0+255),0,b
  5983   0063C0                     l2854:
  5984                           
  5985                           ; BSR set to: 0
  5986   0063C0  90D8               	bcf	status,0,c
  5987   0063C2  3363               	rrcf	(___awdiv@divisor+1)& (0+255),f,b
  5988   0063C4  3362               	rrcf	___awdiv@divisor& (0+255),f,b
  5989   0063C6                     
  5990                           ; BSR set to: 0
  5991   0063C6  2F64               	decfsz	___awdiv@counter& (0+255),f,b
  5992   0063C8  EFCD  F031         	goto	l2846
  5993   0063CC                     l2858:
  5994                           
  5995                           ; BSR set to: 0
  5996   0063CC  5165               	movf	___awdiv@sign& (0+255),w,b
  5997   0063CE  B4D8               	btfsc	status,2,c
  5998   0063D0  EFEC  F031         	goto	u3381
  5999   0063D4  EFEE  F031         	goto	u3380
  6000   0063D8                     u3381:
  6001   0063D8  EFF2  F031         	goto	l2862
  6002   0063DC                     u3380:
  6003   0063DC                     
  6004                           ; BSR set to: 0
  6005   0063DC  6D66               	negf	___awdiv@quotient& (0+255),b
  6006   0063DE  1F67               	comf	(___awdiv@quotient+1)& (0+255),f,b
  6007   0063E0  B0D8               	btfsc	status,0,c
  6008   0063E2  2B67               	incf	(___awdiv@quotient+1)& (0+255),f,b
  6009   0063E4                     l2862:
  6010                           
  6011                           ; BSR set to: 0
  6012   0063E4  C066  F060         	movff	___awdiv@quotient,?___awdiv
  6013   0063E8  C067  F061         	movff	___awdiv@quotient+1,?___awdiv+1
  6014   0063EC                     
  6015                           ; BSR set to: 0
  6016   0063EC  0012               	return		;funcret
  6017   0063EE                     __end_of___awdiv:
  6018                           	callstack 0
  6019                           
  6020 ;; *************** function _rotina_ISR *****************
  6021 ;; Defined at:
  6022 ;;		line 127 in file "main.c"
  6023 ;; Parameters:    Size  Location     Type
  6024 ;;		None
  6025 ;; Auto vars:     Size  Location     Type
  6026 ;;  ch              1   56[COMRAM] unsigned char 
  6027 ;; Return value:  Size  Location     Type
  6028 ;;                  1    wreg      void 
  6029 ;; Registers used:
  6030 ;;		wreg, fsr1l, fsr1h, fsr2l, fsr2h, status,2, status,0, tblptrl, tblptrh, tblptru, cstack
  6031 ;; Tracked objects:
  6032 ;;		On entry : 0/0
  6033 ;;		On exit  : 0/0
  6034 ;;		Unchanged: 0/0
  6035 ;; Data sizes:     COMRAM   BANK0   BANK1   BANK2   BANK3   BANK4   BANK5
  6036 ;;      Params:         0       0       0       0       0       0       0
  6037 ;;      Locals:         1       0       0       0       0       0       0
  6038 ;;      Temps:         10       0       0       0       0       0       0
  6039 ;;      Totals:        11       0       0       0       0       0       0
  6040 ;;Total ram usage:       11 bytes
  6041 ;; Hardware stack levels used: 1
  6042 ;; Hardware stack levels required when called: 5
  6043 ;; This function calls:
  6044 ;;		_memset
  6045 ;;		_rxUsart
  6046 ;;		_sprintf
  6047 ;;		_strcmp
  6048 ;;		i2_enviarString
  6049 ;; This function is called by:
  6050 ;;		Interrupt level 2
  6051 ;; This function uses a non-reentrant model
  6052 ;;
  6053                           
  6054                           	psect	intcode
  6055   000008                     __pintcode:
  6056                           	callstack 0
  6057   000008                     _rotina_ISR:
  6058                           	callstack 22
  6059                           
  6060                           ; BSR set to: 0
  6061                           ;incstack = 0
  6062   000008  824B               	bsf	int$flags,1,c	;set compiler interrupt flag (level 2)
  6063   00000A  ED5E  F037         	call	int_func,f	;refresh shadow registers
  6064                           
  6065                           	psect	intcode_body
  6066   006EBC                     __pintcode_body:
  6067                           	callstack 22
  6068   006EBC                     int_func:
  6069                           	callstack 22
  6070   006EBC  0006               	pop		; remove dummy address from shadow register refresh
  6071   006EBE  CFE1 F031          	movff	fsr1l,??_rotina_ISR+2
  6072   006EC2  CFE2 F032          	movff	fsr1h,??_rotina_ISR+3
  6073   006EC6  CFD9 F033          	movff	fsr2l,??_rotina_ISR+4
  6074   006ECA  CFDA F034          	movff	fsr2h,??_rotina_ISR+5
  6075   006ECE  CFF6 F035          	movff	tblptrl,??_rotina_ISR+6
  6076   006ED2  CFF7 F036          	movff	tblptrh,??_rotina_ISR+7
  6077   006ED6  CFF8 F037          	movff	tblptru,??_rotina_ISR+8
  6078   006EDA  CFF5 F038          	movff	tablat,??_rotina_ISR+9
  6079   006EDE                     
  6080                           ;main.c: 128:     if (INTCONbits.TMR0IE && INTCONbits.TMR0IF){
  6081   006EDE  AAF2               	btfss	242,5,c	;volatile
  6082   006EE0  EF74  F037         	goto	i2u389_41
  6083   006EE4  EF76  F037         	goto	i2u389_40
  6084   006EE8                     i2u389_41:
  6085   006EE8  EF84  F037         	goto	i2l3222
  6086   006EEC                     i2u389_40:
  6087   006EEC  A4F2               	btfss	242,2,c	;volatile
  6088   006EEE  EF7B  F037         	goto	i2u390_41
  6089   006EF2  EF7D  F037         	goto	i2u390_40
  6090   006EF6                     i2u390_41:
  6091   006EF6  EF84  F037         	goto	i2l3222
  6092   006EFA                     i2u390_40:
  6093   006EFA                     
  6094                           ;main.c: 129:         TMR0 = 34285;
  6095   006EFA  0E85               	movlw	133
  6096   006EFC  6ED7               	movwf	215,c	;volatile
  6097   006EFE  0EED               	movlw	237
  6098   006F00  6ED6               	movwf	214,c	;volatile
  6099   006F02                     
  6100                           ;main.c: 130:         INTCONbits.TMR0IF = 0;
  6101   006F02  94F2               	bcf	242,2,c	;volatile
  6102   006F04                     
  6103                           ;main.c: 131:         INTCONbits.TMR0IE = 1;
  6104   006F04  8AF2               	bsf	242,5,c	;volatile
  6105   006F06                     
  6106                           ;main.c: 132:         ADCON0bits.GO = 1;
  6107   006F06  82C2               	bsf	194,1,c	;volatile
  6108   006F08                     i2l3222:
  6109                           
  6110                           ;main.c: 134:     if (PIE1bits.ADIE && PIR1bits.ADIF){
  6111   006F08  AC9D               	btfss	157,6,c	;volatile
  6112   006F0A  EF89  F037         	goto	i2u391_41
  6113   006F0E  EF8B  F037         	goto	i2u391_40
  6114   006F12                     i2u391_41:
  6115   006F12  EF93  F037         	goto	i2l116
  6116   006F16                     i2u391_40:
  6117   006F16  AC9E               	btfss	158,6,c	;volatile
  6118   006F18  EF90  F037         	goto	i2u392_41
  6119   006F1C  EF92  F037         	goto	i2u392_40
  6120   006F20                     i2u392_41:
  6121   006F20  EF93  F037         	goto	i2l116
  6122   006F24                     i2u392_40:
  6123   006F24                     
  6124                           ;main.c: 135:         PIR1bits.ADIF = 0;
  6125   006F24  9C9E               	bcf	158,6,c	;volatile
  6126   006F26                     i2l116:
  6127                           
  6128                           ;main.c: 137:     if (PIR1bits.RCIF){
  6129   006F26  AA9E               	btfss	158,5,c	;volatile
  6130   006F28  EF98  F037         	goto	i2u393_41
  6131   006F2C  EF9A  F037         	goto	i2u393_40
  6132   006F30                     i2u393_41:
  6133   006F30  EFD4  F038         	goto	i2l129
  6134   006F34                     i2u393_40:
  6135   006F34                     
  6136                           ;main.c: 138:         char ch = rxUsart();
  6137   006F34  EC29  F02E         	call	_rxUsart	;wreg free
  6138   006F38  6E39               	movwf	rotina_ISR@ch^0,c
  6139   006F3A                     
  6140                           ;main.c: 139:         if (ch != '\n' && ch != '\r' && indice < 5 - 1){
  6141   006F3A  0E0A               	movlw	10
  6142   006F3C  1839               	xorwf	rotina_ISR@ch^0,w,c
  6143   006F3E  B4D8               	btfsc	status,2,c
  6144   006F40  EFA4  F037         	goto	i2u394_41
  6145   006F44  EFA6  F037         	goto	i2u394_40
  6146   006F48                     i2u394_41:
  6147   006F48  EFCC  F037         	goto	i2l3242
  6148   006F4C                     i2u394_40:
  6149   006F4C  0E0D               	movlw	13
  6150   006F4E  1839               	xorwf	rotina_ISR@ch^0,w,c
  6151   006F50  B4D8               	btfsc	status,2,c
  6152   006F52  EFAD  F037         	goto	i2u395_41
  6153   006F56  EFAF  F037         	goto	i2u395_40
  6154   006F5A                     i2u395_41:
  6155   006F5A  EFCC  F037         	goto	i2l3242
  6156   006F5E                     i2u395_40:
  6157   006F5E  BE3F               	btfsc	(_indice+1)^0,7,c
  6158   006F60  EFBD  F037         	goto	i2u396_40
  6159   006F64  503F               	movf	(_indice+1)^0,w,c
  6160   006F66  E107               	bnz	i2u396_41
  6161   006F68  0E04               	movlw	4
  6162   006F6A  5C3E               	subwf	_indice^0,w,c
  6163   006F6C  B0D8               	btfsc	status,0,c
  6164   006F6E  EFBB  F037         	goto	i2u396_41
  6165   006F72  EFBD  F037         	goto	i2u396_40
  6166   006F76                     i2u396_41:
  6167   006F76  EFCC  F037         	goto	i2l3242
  6168   006F7A                     i2u396_40:
  6169   006F7A                     
  6170                           ;main.c: 140:             buffer[indice] = ch;
  6171   006F7A  503E               	movf	_indice^0,w,c
  6172   006F7C  0F46               	addlw	low _buffer
  6173   006F7E  6ED9               	movwf	fsr2l,c
  6174   006F80  6ADA               	clrf	fsr2h,c
  6175   006F82  C039  FFDF         	movff	rotina_ISR@ch,indf2
  6176   006F86                     
  6177                           ;main.c: 141:             indice++;
  6178   006F86  4A3E               	infsnz	_indice^0,f,c
  6179   006F88  2A3F               	incf	(_indice+1)^0,f,c
  6180   006F8A                     
  6181                           ;main.c: 142:             buffer[indice] = '\0';
  6182   006F8A  503E               	movf	_indice^0,w,c
  6183   006F8C  0F46               	addlw	low _buffer
  6184   006F8E  6ED9               	movwf	fsr2l,c
  6185   006F90  6ADA               	clrf	fsr2h,c
  6186   006F92  6ADF               	clrf	indf2,c
  6187                           
  6188                           ;main.c: 143:         }else {
  6189   006F94  EFD3  F038         	goto	i2l3316
  6190   006F98                     i2l3242:
  6191                           
  6192                           ;main.c: 144:             buffer[indice] = '\0';
  6193   006F98  503E               	movf	_indice^0,w,c
  6194   006F9A  0F46               	addlw	low _buffer
  6195   006F9C  6ED9               	movwf	fsr2l,c
  6196   006F9E  6ADA               	clrf	fsr2h,c
  6197   006FA0  6ADF               	clrf	indf2,c
  6198   006FA2                     
  6199                           ;main.c: 145:             if (strcmp(buffer, "Off") == 0){
  6200   006FA2  0E46               	movlw	low _buffer
  6201   006FA4  6E01               	movwf	strcmp@l^0,c
  6202   006FA6  0EEF               	movlw	low STR_2
  6203   006FA8  6E02               	movwf	strcmp@r^0,c
  6204   006FAA  0E7E               	movlw	high STR_2
  6205   006FAC  6E03               	movwf	(strcmp@r+1)^0,c
  6206   006FAE  EC4B  F02F         	call	_strcmp	;wreg free
  6207   006FB2  5001               	movf	?_strcmp^0,w,c
  6208   006FB4  1002               	iorwf	(?_strcmp+1)^0,w,c
  6209   006FB6  A4D8               	btfss	status,2,c
  6210   006FB8  EFE0  F037         	goto	i2u397_41
  6211   006FBC  EFE2  F037         	goto	i2u397_40
  6212   006FC0                     i2u397_41:
  6213   006FC0  EFF8  F037         	goto	i2l3256
  6214   006FC4                     i2u397_40:
  6215   006FC4                     
  6216                           ;main.c: 146:                 LATDbits.LATD7 = 0;
  6217   006FC4  9E8C               	bcf	140,7,c	;volatile
  6218                           
  6219                           ;main.c: 147:                 LATDbits.LATD6 = 0;
  6220   006FC6  9C8C               	bcf	140,6,c	;volatile
  6221                           
  6222                           ;main.c: 148:                 LATDbits.LATD5 = 0;
  6223   006FC8  9A8C               	bcf	140,5,c	;volatile
  6224                           
  6225                           ;main.c: 149:                 LATAbits.LATA3 = 0;
  6226   006FCA  9689               	bcf	137,3,c	;volatile
  6227                           
  6228                           ;main.c: 150:                 LATAbits.LATA2 = 1;
  6229   006FCC  8489               	bsf	137,2,c	;volatile
  6230   006FCE                     
  6231                           ;main.c: 151:                 _delay((unsigned long)((250)*(8000000/4000.0)));
  6232   006FCE  0E03               	movlw	3
  6233   006FD0  6E30               	movwf	(??_rotina_ISR+1)^0,c
  6234   006FD2  0E8A               	movlw	138
  6235   006FD4  6E2F               	movwf	??_rotina_ISR^0,c
  6236   006FD6  0E56               	movlw	86
  6237   006FD8                     i2u408_47:
  6238   006FD8  2EE8               	decfsz	wreg,f,c
  6239   006FDA  D7FE               	bra	i2u408_47
  6240   006FDC  2E2F               	decfsz	??_rotina_ISR^0,f,c
  6241   006FDE  D7FC               	bra	i2u408_47
  6242   006FE0  2E30               	decfsz	(??_rotina_ISR+1)^0,f,c
  6243   006FE2  D7FA               	bra	i2u408_47
  6244   006FE4                     
  6245                           ;main.c: 152:                 LATAbits.LATA2 = 0;
  6246   006FE4  9489               	bcf	137,2,c	;volatile
  6247   006FE6                     
  6248                           ;main.c: 153:                 automatico = 0;
  6249   006FE6  0100               	movlb	0	; () banked
  6250   006FE8  6BE1               	clrf	_automatico& (0+255),b
  6251   006FEA                     
  6252                           ; BSR set to: 0
  6253                           ;main.c: 154:                 manual = 0;
  6254   006FEA  6BE0               	clrf	_manual& (0+255),b
  6255                           
  6256                           ;main.c: 155:             }else if (strcmp(buffer, "M+") == 0){
  6257   006FEC  EFC3  F038         	goto	i2l3312
  6258   006FF0                     i2l3256:
  6259   006FF0  0E46               	movlw	low _buffer
  6260   006FF2  6E01               	movwf	strcmp@l^0,c
  6261   006FF4  0EF3               	movlw	low STR_3
  6262   006FF6  6E02               	movwf	strcmp@r^0,c
  6263   006FF8  0E7E               	movlw	high STR_3
  6264   006FFA  6E03               	movwf	(strcmp@r+1)^0,c
  6265   006FFC  EC4B  F02F         	call	_strcmp	;wreg free
  6266   007000  5001               	movf	?_strcmp^0,w,c
  6267   007002  1002               	iorwf	(?_strcmp+1)^0,w,c
  6268   007004  A4D8               	btfss	status,2,c
  6269   007006  EF07  F038         	goto	i2u398_41
  6270   00700A  EF09  F038         	goto	i2u398_40
  6271   00700E                     i2u398_41:
  6272   00700E  EF4B  F038         	goto	i2l3278
  6273   007012                     i2u398_40:
  6274   007012                     
  6275                           ;main.c: 156:                 manual = 1;
  6276   007012  0E01               	movlw	1
  6277   007014  0100               	movlb	0	; () banked
  6278   007016  6FE0               	movwf	_manual& (0+255),b
  6279   007018                     
  6280                           ; BSR set to: 0
  6281                           ;main.c: 157:                 automatico = 0;
  6282   007018  6BE1               	clrf	_automatico& (0+255),b
  6283   00701A                     
  6284                           ; BSR set to: 0
  6285                           ;main.c: 158:                 if (tempDesejada >= 18 && tempDesejada < 26){
  6286   00701A  BFE3               	btfsc	(_tempDesejada+1)& (0+255),7,b
  6287   00701C  EF19  F038         	goto	i2u399_41
  6288   007020  51E3               	movf	(_tempDesejada+1)& (0+255),w,b
  6289   007022  E109               	bnz	i2u399_40
  6290   007024  0E12               	movlw	18
  6291   007026  5DE2               	subwf	_tempDesejada& (0+255),w,b
  6292   007028  A0D8               	btfss	status,0,c
  6293   00702A  EF19  F038         	goto	i2u399_41
  6294   00702E  EF1B  F038         	goto	i2u399_40
  6295   007032                     i2u399_41:
  6296   007032  EF3C  F038         	goto	i2l3272
  6297   007036                     i2u399_40:
  6298   007036                     
  6299                           ; BSR set to: 0
  6300   007036  BFE3               	btfsc	(_tempDesejada+1)& (0+255),7,b
  6301   007038  EF29  F038         	goto	i2u400_40
  6302   00703C  51E3               	movf	(_tempDesejada+1)& (0+255),w,b
  6303   00703E  E107               	bnz	i2u400_41
  6304   007040  0E1A               	movlw	26
  6305   007042  5DE2               	subwf	_tempDesejada& (0+255),w,b
  6306   007044  B0D8               	btfsc	status,0,c
  6307   007046  EF27  F038         	goto	i2u400_41
  6308   00704A  EF29  F038         	goto	i2u400_40
  6309   00704E                     i2u400_41:
  6310   00704E  EF3C  F038         	goto	i2l3272
  6311   007052                     i2u400_40:
  6312   007052                     
  6313                           ; BSR set to: 0
  6314                           ;main.c: 159:                     tempDesejada++;
  6315   007052  4BE2               	infsnz	_tempDesejada& (0+255),f,b
  6316   007054  2BE3               	incf	(_tempDesejada+1)& (0+255),f,b
  6317   007056                     
  6318                           ; BSR set to: 0
  6319                           ;main.c: 160:                     sprintf(str, "A/C: %d", tempDesejada);
  6320   007056  0E41               	movlw	low _str
  6321   007058  6E1E               	movwf	sprintf@s^0,c
  6322   00705A  0EE7               	movlw	low STR_4
  6323   00705C  6E1F               	movwf	sprintf@fmt^0,c
  6324   00705E  0E7E               	movlw	high STR_4
  6325   007060  6E20               	movwf	(sprintf@fmt+1)^0,c
  6326   007062  C0E2  F021         	movff	_tempDesejada,?_sprintf+3
  6327   007066  C0E3  F022         	movff	_tempDesejada+1,?_sprintf+4
  6328   00706A  ECAC  F02E         	call	_sprintf	;wreg free
  6329   00706E                     
  6330                           ;main.c: 161:                     enviarString(str);
  6331   00706E  0E41               	movlw	low _str
  6332   007070  6E02               	movwf	i2enviarString@str^0,c
  6333   007072  6A03               	clrf	(i2enviarString@str+1)^0,c
  6334   007074  EC7F  F02F         	call	i2_enviarString	;wreg free
  6335   007078                     i2l3272:
  6336                           
  6337                           ;main.c: 163:                 LATAbits.LATA2 = 1;
  6338   007078  8489               	bsf	137,2,c	;volatile
  6339   00707A                     
  6340                           ;main.c: 164:                 _delay((unsigned long)((250)*(8000000/4000.0)));
  6341   00707A  0E03               	movlw	3
  6342   00707C  6E30               	movwf	(??_rotina_ISR+1)^0,c
  6343   00707E  0E8A               	movlw	138
  6344   007080  6E2F               	movwf	??_rotina_ISR^0,c
  6345   007082  0E56               	movlw	86
  6346   007084                     i2u409_47:
  6347   007084  2EE8               	decfsz	wreg,f,c
  6348   007086  D7FE               	bra	i2u409_47
  6349   007088  2E2F               	decfsz	??_rotina_ISR^0,f,c
  6350   00708A  D7FC               	bra	i2u409_47
  6351   00708C  2E30               	decfsz	(??_rotina_ISR+1)^0,f,c
  6352   00708E  D7FA               	bra	i2u409_47
  6353   007090                     
  6354                           ;main.c: 165:                 LATAbits.LATA2 = 0;
  6355   007090  9489               	bcf	137,2,c	;volatile
  6356                           
  6357                           ;main.c: 166:             }else if (strcmp(buffer, "M-") == 0){
  6358   007092  EFC3  F038         	goto	i2l3312
  6359   007096                     i2l3278:
  6360   007096  0E46               	movlw	low _buffer
  6361   007098  6E01               	movwf	strcmp@l^0,c
  6362   00709A  0EF6               	movlw	low STR_5
  6363   00709C  6E02               	movwf	strcmp@r^0,c
  6364   00709E  0E7E               	movlw	high STR_5
  6365   0070A0  6E03               	movwf	(strcmp@r+1)^0,c
  6366   0070A2  EC4B  F02F         	call	_strcmp	;wreg free
  6367   0070A6  5001               	movf	?_strcmp^0,w,c
  6368   0070A8  1002               	iorwf	(?_strcmp+1)^0,w,c
  6369   0070AA  A4D8               	btfss	status,2,c
  6370   0070AC  EF5A  F038         	goto	i2u401_41
  6371   0070B0  EF5C  F038         	goto	i2u401_40
  6372   0070B4                     i2u401_41:
  6373   0070B4  EF9F  F038         	goto	i2l3300
  6374   0070B8                     i2u401_40:
  6375   0070B8                     
  6376                           ;main.c: 167:                 manual = 1;
  6377   0070B8  0E01               	movlw	1
  6378   0070BA  0100               	movlb	0	; () banked
  6379   0070BC  6FE0               	movwf	_manual& (0+255),b
  6380   0070BE                     
  6381                           ; BSR set to: 0
  6382                           ;main.c: 168:                 automatico = 0;
  6383   0070BE  6BE1               	clrf	_automatico& (0+255),b
  6384   0070C0                     
  6385                           ; BSR set to: 0
  6386                           ;main.c: 169:                 if (tempDesejada > 18 && tempDesejada <= 26){
  6387   0070C0  BFE3               	btfsc	(_tempDesejada+1)& (0+255),7,b
  6388   0070C2  EF6C  F038         	goto	i2u402_41
  6389   0070C6  51E3               	movf	(_tempDesejada+1)& (0+255),w,b
  6390   0070C8  E109               	bnz	i2u402_40
  6391   0070CA  0E13               	movlw	19
  6392   0070CC  5DE2               	subwf	_tempDesejada& (0+255),w,b
  6393   0070CE  A0D8               	btfss	status,0,c
  6394   0070D0  EF6C  F038         	goto	i2u402_41
  6395   0070D4  EF6E  F038         	goto	i2u402_40
  6396   0070D8                     i2u402_41:
  6397   0070D8  EF90  F038         	goto	i2l3294
  6398   0070DC                     i2u402_40:
  6399   0070DC                     
  6400                           ; BSR set to: 0
  6401   0070DC  BFE3               	btfsc	(_tempDesejada+1)& (0+255),7,b
  6402   0070DE  EF7C  F038         	goto	i2u403_40
  6403   0070E2  51E3               	movf	(_tempDesejada+1)& (0+255),w,b
  6404   0070E4  E107               	bnz	i2u403_41
  6405   0070E6  0E1B               	movlw	27
  6406   0070E8  5DE2               	subwf	_tempDesejada& (0+255),w,b
  6407   0070EA  B0D8               	btfsc	status,0,c
  6408   0070EC  EF7A  F038         	goto	i2u403_41
  6409   0070F0  EF7C  F038         	goto	i2u403_40
  6410   0070F4                     i2u403_41:
  6411   0070F4  EF90  F038         	goto	i2l3294
  6412   0070F8                     i2u403_40:
  6413   0070F8                     
  6414                           ; BSR set to: 0
  6415                           ;main.c: 170:                     tempDesejada--;
  6416   0070F8  07E2               	decf	_tempDesejada& (0+255),f,b
  6417   0070FA  A0D8               	btfss	status,0,c
  6418   0070FC  07E3               	decf	(_tempDesejada+1)& (0+255),f,b
  6419   0070FE                     
  6420                           ; BSR set to: 0
  6421                           ;main.c: 171:                     sprintf(str, "A/C: %d", tempDesejada);
  6422   0070FE  0E41               	movlw	low _str
  6423   007100  6E1E               	movwf	sprintf@s^0,c
  6424   007102  0EE7               	movlw	low STR_4
  6425   007104  6E1F               	movwf	sprintf@fmt^0,c
  6426   007106  0E7E               	movlw	high STR_4
  6427   007108  6E20               	movwf	(sprintf@fmt+1)^0,c
  6428   00710A  C0E2  F021         	movff	_tempDesejada,?_sprintf+3
  6429   00710E  C0E3  F022         	movff	_tempDesejada+1,?_sprintf+4
  6430   007112  ECAC  F02E         	call	_sprintf	;wreg free
  6431   007116                     
  6432                           ;main.c: 172:                     enviarString(str);
  6433   007116  0E41               	movlw	low _str
  6434   007118  6E02               	movwf	i2enviarString@str^0,c
  6435   00711A  6A03               	clrf	(i2enviarString@str+1)^0,c
  6436   00711C  EC7F  F02F         	call	i2_enviarString	;wreg free
  6437   007120                     i2l3294:
  6438                           
  6439                           ;main.c: 174:                 LATAbits.LATA2 = 1;
  6440   007120  8489               	bsf	137,2,c	;volatile
  6441   007122                     
  6442                           ;main.c: 175:                 _delay((unsigned long)((250)*(8000000/4000.0)));
  6443   007122  0E03               	movlw	3
  6444   007124  6E30               	movwf	(??_rotina_ISR+1)^0,c
  6445   007126  0E8A               	movlw	138
  6446   007128  6E2F               	movwf	??_rotina_ISR^0,c
  6447   00712A  0E56               	movlw	86
  6448   00712C                     i2u410_47:
  6449   00712C  2EE8               	decfsz	wreg,f,c
  6450   00712E  D7FE               	bra	i2u410_47
  6451   007130  2E2F               	decfsz	??_rotina_ISR^0,f,c
  6452   007132  D7FC               	bra	i2u410_47
  6453   007134  2E30               	decfsz	(??_rotina_ISR+1)^0,f,c
  6454   007136  D7FA               	bra	i2u410_47
  6455   007138                     
  6456                           ;main.c: 176:                 LATAbits.LATA2 = 0;
  6457   007138  9489               	bcf	137,2,c	;volatile
  6458                           
  6459                           ;main.c: 177:             }else if (strcmp(buffer, "A") == 0){
  6460   00713A  EFC3  F038         	goto	i2l3312
  6461   00713E                     i2l3300:
  6462   00713E  0E46               	movlw	low _buffer
  6463   007140  6E01               	movwf	strcmp@l^0,c
  6464   007142  0EF9               	movlw	low STR_7
  6465   007144  6E02               	movwf	strcmp@r^0,c
  6466   007146  0E7E               	movlw	high STR_7
  6467   007148  6E03               	movwf	(strcmp@r+1)^0,c
  6468   00714A  EC4B  F02F         	call	_strcmp	;wreg free
  6469   00714E  5001               	movf	?_strcmp^0,w,c
  6470   007150  1002               	iorwf	(?_strcmp+1)^0,w,c
  6471   007152  A4D8               	btfss	status,2,c
  6472   007154  EFAE  F038         	goto	i2u404_41
  6473   007158  EFB0  F038         	goto	i2u404_40
  6474   00715C                     i2u404_41:
  6475   00715C  EFC3  F038         	goto	i2l124
  6476   007160                     i2u404_40:
  6477   007160                     
  6478                           ;main.c: 178:                 automatico = 1;
  6479   007160  0E01               	movlw	1
  6480   007162  0100               	movlb	0	; () banked
  6481   007164  6FE1               	movwf	_automatico& (0+255),b
  6482   007166                     
  6483                           ; BSR set to: 0
  6484                           ;main.c: 179:                 manual = 0;
  6485   007166  6BE0               	clrf	_manual& (0+255),b
  6486   007168                     
  6487                           ; BSR set to: 0
  6488                           ;main.c: 180:                 LATAbits.LATA2 = 1;
  6489   007168  8489               	bsf	137,2,c	;volatile
  6490   00716A                     
  6491                           ; BSR set to: 0
  6492                           ;main.c: 181:                 _delay((unsigned long)((250)*(8000000/4000.0)));
  6493   00716A  0E03               	movlw	3
  6494   00716C  6E30               	movwf	(??_rotina_ISR+1)^0,c
  6495   00716E  0E8A               	movlw	138
  6496   007170  6E2F               	movwf	??_rotina_ISR^0,c
  6497   007172  0E56               	movlw	86
  6498   007174                     i2u411_47:
  6499   007174  2EE8               	decfsz	wreg,f,c
  6500   007176  D7FE               	bra	i2u411_47
  6501   007178  2E2F               	decfsz	??_rotina_ISR^0,f,c
  6502   00717A  D7FC               	bra	i2u411_47
  6503   00717C  2E30               	decfsz	(??_rotina_ISR+1)^0,f,c
  6504   00717E  D7FA               	bra	i2u411_47
  6505   007180                     
  6506                           ;main.c: 182:                 LATAbits.LATA2 = 0;
  6507   007180  9489               	bcf	137,2,c	;volatile
  6508   007182  EFC3  F038         	goto	i2l3312
  6509   007186                     i2l124:
  6510   007186                     i2l3312:
  6511                           
  6512                           ;main.c: 184:             indice = 0;
  6513   007186  0E00               	movlw	0
  6514   007188  6E3F               	movwf	(_indice+1)^0,c
  6515   00718A  0E00               	movlw	0
  6516   00718C  6E3E               	movwf	_indice^0,c
  6517   00718E                     
  6518                           ;main.c: 185:             memset(buffer, 0, 5);
  6519   00718E  0E46               	movlw	low _buffer
  6520   007190  6E01               	movwf	memset@dest^0,c
  6521   007192  0E00               	movlw	0
  6522   007194  6E03               	movwf	(memset@c+1)^0,c
  6523   007196  0E00               	movlw	0
  6524   007198  6E02               	movwf	memset@c^0,c
  6525   00719A  0E00               	movlw	0
  6526   00719C  6E05               	movwf	(memset@n+1)^0,c
  6527   00719E  0E05               	movlw	5
  6528   0071A0  6E04               	movwf	memset@n^0,c
  6529   0071A2  EC7A  F02E         	call	_memset	;wreg free
  6530   0071A6                     i2l3316:
  6531                           
  6532                           ;main.c: 187:         PIR1bits.RCIF = 0;
  6533   0071A6  9A9E               	bcf	158,5,c	;volatile
  6534   0071A8                     i2l129:
  6535   0071A8  C038  FFF5         	movff	??_rotina_ISR+9,tablat
  6536   0071AC  C037  FFF8         	movff	??_rotina_ISR+8,tblptru
  6537   0071B0  C036  FFF7         	movff	??_rotina_ISR+7,tblptrh
  6538   0071B4  C035  FFF6         	movff	??_rotina_ISR+6,tblptrl
  6539   0071B8  C034  FFDA         	movff	??_rotina_ISR+5,fsr2h
  6540   0071BC  C033  FFD9         	movff	??_rotina_ISR+4,fsr2l
  6541   0071C0  C032  FFE2         	movff	??_rotina_ISR+3,fsr1h
  6542   0071C4  C031  FFE1         	movff	??_rotina_ISR+2,fsr1l
  6543   0071C8  924B               	bcf	int$flags,1,c	;clear compiler interrupt flag (level 2)
  6544   0071CA  0011               	retfie		f
  6545   0071CC                     __end_of_rotina_ISR:
  6546                           	callstack 0
  6547                           
  6548 ;; *************** function i2_enviarString *****************
  6549 ;; Defined at:
  6550 ;;		line 203 in file "main.c"
  6551 ;; Parameters:    Size  Location     Type
  6552 ;;  str             2    1[COMRAM] PTR unsigned char 
  6553 ;;		 -> STR_10(10), STR_9(10), STR_8(10), str(5), 
  6554 ;;		 -> STR_1(128), 
  6555 ;; Auto vars:     Size  Location     Type
  6556 ;;		None
  6557 ;; Return value:  Size  Location     Type
  6558 ;;                  1    wreg      void 
  6559 ;; Registers used:
  6560 ;;		wreg, fsr1l, fsr1h, status,2, status,0, tblptrl, tblptrh, tblptru, cstack
  6561 ;; Tracked objects:
  6562 ;;		On entry : 0/0
  6563 ;;		On exit  : 0/0
  6564 ;;		Unchanged: 0/0
  6565 ;; Data sizes:     COMRAM   BANK0   BANK1   BANK2   BANK3   BANK4   BANK5
  6566 ;;      Params:         2       0       0       0       0       0       0
  6567 ;;      Locals:         0       0       0       0       0       0       0
  6568 ;;      Temps:          0       0       0       0       0       0       0
  6569 ;;      Totals:         2       0       0       0       0       0       0
  6570 ;;Total ram usage:        2 bytes
  6571 ;; Hardware stack levels used: 1
  6572 ;; Hardware stack levels required when called: 1
  6573 ;; This function calls:
  6574 ;;		i2_txUsart
  6575 ;; This function is called by:
  6576 ;;		_rotina_ISR
  6577 ;; This function uses a non-reentrant model
  6578 ;;
  6579                           
  6580                           	psect	text22
  6581   005EFE                     __ptext22:
  6582                           	callstack 0
  6583   005EFE                     i2_enviarString:
  6584                           	callstack 25
  6585   005EFE                     
  6586                           ;main.c: 204:     while(*str != '\0'){
  6587   005EFE  EF95  F02F         	goto	i2l3178
  6588   005F02                     i2l3174:
  6589                           
  6590                           ;main.c: 205:         txUsart(*str);
  6591   005F02  C002  FFF6         	movff	i2enviarString@str,tblptrl
  6592   005F06  C003  FFF7         	movff	i2enviarString@str+1,tblptrh
  6593   005F0A  6AF8               	clrf	tblptru,c
  6594   005F0C  0E05               	movlw	(high __ramtop+-1)
  6595   005F0E  64F7               	cpfsgt	tblptrh,c
  6596   005F10  D003               	bra	i2u379_47
  6597   005F12  0008               	tblrd		*
  6598   005F14  50F5               	movf	tablat,w,c
  6599   005F16  D005               	bra	i2u379_40
  6600   005F18                     i2u379_47:
  6601   005F18  CFF6 FFE1          	movff	tblptrl,fsr1l
  6602   005F1C  CFF7 FFE2          	movff	tblptrh,fsr1h
  6603   005F20  50E7               	movf	indf1,w,c
  6604   005F22                     i2u379_40:
  6605   005F22  EC34  F02E         	call	i2_txUsart
  6606   005F26                     
  6607                           ;main.c: 206:         str++;
  6608   005F26  4A02               	infsnz	i2enviarString@str^0,f,c
  6609   005F28  2A03               	incf	(i2enviarString@str+1)^0,f,c
  6610   005F2A                     i2l3178:
  6611                           
  6612                           ;main.c: 204:     while(*str != '\0'){
  6613   005F2A  C002  FFF6         	movff	i2enviarString@str,tblptrl
  6614   005F2E  C003  FFF7         	movff	i2enviarString@str+1,tblptrh
  6615   005F32  6AF8               	clrf	tblptru,c
  6616   005F34  0E05               	movlw	(high __ramtop+-1)
  6617   005F36  64F7               	cpfsgt	tblptrh,c
  6618   005F38  D003               	bra	i2u380_47
  6619   005F3A  0008               	tblrd		*
  6620   005F3C  50F5               	movf	tablat,w,c
  6621   005F3E  D005               	bra	i2u380_40
  6622   005F40                     i2u380_47:
  6623   005F40  CFF6 FFE1          	movff	tblptrl,fsr1l
  6624   005F44  CFF7 FFE2          	movff	tblptrh,fsr1h
  6625   005F48  50E7               	movf	indf1,w,c
  6626   005F4A                     i2u380_40:
  6627   005F4A  0900               	iorlw	0
  6628   005F4C  A4D8               	btfss	status,2,c
  6629   005F4E  EFAB  F02F         	goto	i2u381_41
  6630   005F52  EFAD  F02F         	goto	i2u381_40
  6631   005F56                     i2u381_41:
  6632   005F56  EF81  F02F         	goto	i2l3174
  6633   005F5A                     i2u381_40:
  6634   005F5A                     
  6635                           ;main.c: 208:     txUsart(13);
  6636   005F5A  0E0D               	movlw	13
  6637   005F5C  EC34  F02E         	call	i2_txUsart
  6638                           
  6639                           ;main.c: 209:     txUsart(10);
  6640   005F60  0E0A               	movlw	10
  6641   005F62  EC34  F02E         	call	i2_txUsart
  6642   005F66  0012               	return		;funcret
  6643   005F68                     __end_ofi2_enviarString:
  6644                           	callstack 0
  6645                           
  6646 ;; *************** function i2_txUsart *****************
  6647 ;; Defined at:
  6648 ;;		line 197 in file "main.c"
  6649 ;; Parameters:    Size  Location     Type
  6650 ;;  ch              1    wreg     unsigned char 
  6651 ;; Auto vars:     Size  Location     Type
  6652 ;;  ch              1    0[COMRAM] unsigned char 
  6653 ;; Return value:  Size  Location     Type
  6654 ;;                  1    wreg      void 
  6655 ;; Registers used:
  6656 ;;		wreg
  6657 ;; Tracked objects:
  6658 ;;		On entry : 0/0
  6659 ;;		On exit  : 0/0
  6660 ;;		Unchanged: 0/0
  6661 ;; Data sizes:     COMRAM   BANK0   BANK1   BANK2   BANK3   BANK4   BANK5
  6662 ;;      Params:         0       0       0       0       0       0       0
  6663 ;;      Locals:         1       0       0       0       0       0       0
  6664 ;;      Temps:          0       0       0       0       0       0       0
  6665 ;;      Totals:         1       0       0       0       0       0       0
  6666 ;;Total ram usage:        1 bytes
  6667 ;; Hardware stack levels used: 1
  6668 ;; This function calls:
  6669 ;;		Nothing
  6670 ;; This function is called by:
  6671 ;;		i2_enviarString
  6672 ;; This function uses a non-reentrant model
  6673 ;;
  6674                           
  6675                           	psect	text23
  6676   005C68                     __ptext23:
  6677                           	callstack 0
  6678   005C68                     i2_txUsart:
  6679                           	callstack 25
  6680                           
  6681                           ;incstack = 0
  6682                           ;i2txUsart@ch stored from wreg
  6683   005C68  6E01               	movwf	i2txUsart@ch^0,c
  6684   005C6A                     i2l135:
  6685   005C6A  A89E               	btfss	158,4,c	;volatile
  6686   005C6C  EF3A  F02E         	goto	i2u368_41
  6687   005C70  EF3C  F02E         	goto	i2u368_40
  6688   005C74                     i2u368_41:
  6689   005C74  EF35  F02E         	goto	i2l135
  6690   005C78                     i2u368_40:
  6691   005C78                     
  6692                           ;main.c: 199:     TXREG = ch;
  6693   005C78  C001  FFAD         	movff	i2txUsart@ch,4013	;volatile
  6694   005C7C  0012               	return		;funcret
  6695   005C7E                     __end_ofi2_txUsart:
  6696                           	callstack 0
  6697                           
  6698 ;; *************** function _strcmp *****************
  6699 ;; Defined at:
  6700 ;;		line 3 in file "/opt/microchip/xc8/v3.00/pic/sources/c99/common/strcmp.c"
  6701 ;; Parameters:    Size  Location     Type
  6702 ;;  l               1    0[COMRAM] PTR const unsigned char 
  6703 ;;		 -> buffer(5), 
  6704 ;;  r               2    1[COMRAM] PTR const unsigned char 
  6705 ;;		 -> STR_7(2), STR_5(3), STR_3(3), STR_2(4), 
  6706 ;; Auto vars:     Size  Location     Type
  6707 ;;		None
  6708 ;; Return value:  Size  Location     Type
  6709 ;;                  2    0[COMRAM] int 
  6710 ;; Registers used:
  6711 ;;		wreg, fsr2l, fsr2h, status,2, status,0, tblptrl, tblptrh, tblptru
  6712 ;; Tracked objects:
  6713 ;;		On entry : 0/0
  6714 ;;		On exit  : 0/0
  6715 ;;		Unchanged: 0/0
  6716 ;; Data sizes:     COMRAM   BANK0   BANK1   BANK2   BANK3   BANK4   BANK5
  6717 ;;      Params:         3       0       0       0       0       0       0
  6718 ;;      Locals:         0       0       0       0       0       0       0
  6719 ;;      Temps:          1       0       0       0       0       0       0
  6720 ;;      Totals:         4       0       0       0       0       0       0
  6721 ;;Total ram usage:        4 bytes
  6722 ;; Hardware stack levels used: 1
  6723 ;; This function calls:
  6724 ;;		Nothing
  6725 ;; This function is called by:
  6726 ;;		_rotina_ISR
  6727 ;; This function uses a non-reentrant model
  6728 ;;
  6729                           
  6730                           	psect	text24
  6731   005E96                     __ptext24:
  6732                           	callstack 0
  6733   005E96                     _strcmp:
  6734                           	callstack 26
  6735   005E96  EF50  F02F         	goto	i2l3144
  6736   005E9A                     i2l3142:
  6737   005E9A  2A01               	incf	strcmp@l^0,f,c
  6738   005E9C  4A02               	infsnz	strcmp@r^0,f,c
  6739   005E9E  2A03               	incf	(strcmp@r+1)^0,f,c
  6740   005EA0                     i2l3144:
  6741   005EA0  5001               	movf	strcmp@l^0,w,c
  6742   005EA2  6ED9               	movwf	fsr2l,c
  6743   005EA4  6ADA               	clrf	fsr2h,c
  6744   005EA6  50DF               	movf	indf2,w,c
  6745   005EA8  6E04               	movwf	??_strcmp^0,c
  6746   005EAA  C002  FFF6         	movff	strcmp@r,tblptrl
  6747   005EAE  C003  FFF7         	movff	strcmp@r+1,tblptrh
  6748   005EB2                     	if	0	;tblptru may be non-zero
  6749   005EB2                     	endif
  6750   005EB2                     	if	0	;tblptru may be non-zero
  6751   005EB2                     	endif
  6752   005EB2  0008               	tblrd		*
  6753   005EB4  50F5               	movf	tablat,w,c
  6754   005EB6  1804               	xorwf	??_strcmp^0,w,c
  6755   005EB8  A4D8               	btfss	status,2,c
  6756   005EBA  EF61  F02F         	goto	i2u376_41
  6757   005EBE  EF63  F02F         	goto	i2u376_40
  6758   005EC2                     i2u376_41:
  6759   005EC2  EF6E  F02F         	goto	i2l3148
  6760   005EC6                     i2u376_40:
  6761   005EC6  5001               	movf	strcmp@l^0,w,c
  6762   005EC8  6ED9               	movwf	fsr2l,c
  6763   005ECA  6ADA               	clrf	fsr2h,c
  6764   005ECC  50DF               	movf	indf2,w,c
  6765   005ECE  A4D8               	btfss	status,2,c
  6766   005ED0  EF6C  F02F         	goto	i2u377_41
  6767   005ED4  EF6E  F02F         	goto	i2u377_40
  6768   005ED8                     i2u377_41:
  6769   005ED8  EF4D  F02F         	goto	i2l3142
  6770   005EDC                     i2u377_40:
  6771   005EDC                     i2l3148:
  6772   005EDC  5001               	movf	strcmp@l^0,w,c
  6773   005EDE  6ED9               	movwf	fsr2l,c
  6774   005EE0  6ADA               	clrf	fsr2h,c
  6775   005EE2  50DF               	movf	indf2,w,c
  6776   005EE4  6E04               	movwf	??_strcmp^0,c
  6777   005EE6  C002  FFF6         	movff	strcmp@r,tblptrl
  6778   005EEA  C003  FFF7         	movff	strcmp@r+1,tblptrh
  6779   005EEE                     	if	0	;tblptru may be non-zero
  6780   005EEE                     	endif
  6781   005EEE                     	if	0	;tblptru may be non-zero
  6782   005EEE                     	endif
  6783   005EEE  0008               	tblrd		*
  6784   005EF0  50F5               	movf	tablat,w,c
  6785   005EF2  5C04               	subwf	??_strcmp^0,w,c
  6786   005EF4  6E01               	movwf	?_strcmp^0,c
  6787   005EF6  6A02               	clrf	(?_strcmp+1)^0,c
  6788   005EF8  A0D8               	btfss	status,0,c
  6789   005EFA  0602               	decf	(?_strcmp+1)^0,f,c
  6790   005EFC  0012               	return		;funcret
  6791   005EFE                     __end_of_strcmp:
  6792                           	callstack 0
  6793                           
  6794 ;; *************** function _sprintf *****************
  6795 ;; Defined at:
  6796 ;;		line 9 in file "/opt/microchip/xc8/v3.00/pic/sources/c99/common/nf_sprintf.c"
  6797 ;; Parameters:    Size  Location     Type
  6798 ;;  s               1   29[COMRAM] PTR unsigned char 
  6799 ;;		 -> str(5), 
  6800 ;;  fmt             2   30[COMRAM] PTR const unsigned char 
  6801 ;;		 -> STR_6(8), STR_4(8), 
  6802 ;; Auto vars:     Size  Location     Type
  6803 ;;  f              11   35[COMRAM] struct _IO_FILE
  6804 ;;  ret             2    0        int 
  6805 ;;  ap              1   34[COMRAM] PTR void [1]
  6806 ;;		 -> ?_sprintf(2), 
  6807 ;; Return value:  Size  Location     Type
  6808 ;;                  2   29[COMRAM] int 
  6809 ;; Registers used:
  6810 ;;		wreg, fsr1l, fsr1h, fsr2l, fsr2h, status,2, status,0, tblptrl, tblptrh, tblptru, cstack
  6811 ;; Tracked objects:
  6812 ;;		On entry : 0/0
  6813 ;;		On exit  : 0/0
  6814 ;;		Unchanged: 0/0
  6815 ;; Data sizes:     COMRAM   BANK0   BANK1   BANK2   BANK3   BANK4   BANK5
  6816 ;;      Params:         5       0       0       0       0       0       0
  6817 ;;      Locals:        12       0       0       0       0       0       0
  6818 ;;      Temps:          0       0       0       0       0       0       0
  6819 ;;      Totals:        17       0       0       0       0       0       0
  6820 ;;Total ram usage:       17 bytes
  6821 ;; Hardware stack levels used: 1
  6822 ;; Hardware stack levels required when called: 4
  6823 ;; This function calls:
  6824 ;;		_vfprintf
  6825 ;; This function is called by:
  6826 ;;		_rotina_ISR
  6827 ;; This function uses a non-reentrant model
  6828 ;;
  6829                           
  6830                           	psect	text25
  6831   005D58                     __ptext25:
  6832                           	callstack 0
  6833   005D58                     _sprintf:
  6834                           	callstack 22
  6835   005D58  0E21               	movlw	low (?_sprintf+3)
  6836   005D5A  6E23               	movwf	sprintf@ap^0,c
  6837   005D5C  C01E  F024         	movff	sprintf@s,sprintf@f
  6838   005D60  0E00               	movlw	0
  6839   005D62  6E27               	movwf	(sprintf@f+3)^0,c
  6840   005D64  0E00               	movlw	0
  6841   005D66  6E26               	movwf	(sprintf@f+2)^0,c
  6842   005D68  0E00               	movlw	0
  6843   005D6A  6E2E               	movwf	(sprintf@f+10)^0,c
  6844   005D6C  0E00               	movlw	0
  6845   005D6E  6E2D               	movwf	(sprintf@f+9)^0,c
  6846   005D70  0E24               	movlw	low sprintf@f
  6847   005D72  6E18               	movwf	vfprintf@fp^0,c
  6848   005D74  C01F  F019         	movff	sprintf@fmt,vfprintf@fmt
  6849   005D78  C020  F01A         	movff	sprintf@fmt+1,vfprintf@fmt+1
  6850   005D7C  0E23               	movlw	low sprintf@ap
  6851   005D7E  6E1B               	movwf	vfprintf@ap^0,c
  6852   005D80  EC06  F02F         	call	_vfprintf	;wreg free
  6853   005D84  501E               	movf	sprintf@s^0,w,c
  6854   005D86  2426               	addwf	(sprintf@f+2)^0,w,c
  6855   005D88  6ED9               	movwf	fsr2l,c
  6856   005D8A  6ADA               	clrf	fsr2h,c
  6857   005D8C  6ADF               	clrf	indf2,c
  6858   005D8E  0012               	return		;funcret
  6859   005D90                     __end_of_sprintf:
  6860                           	callstack 0
  6861                           
  6862 ;; *************** function _vfprintf *****************
  6863 ;; Defined at:
  6864 ;;		line 1817 in file "/opt/microchip/xc8/v3.00/pic/sources/c99/common/doprnt.c"
  6865 ;; Parameters:    Size  Location     Type
  6866 ;;  fp              1   23[COMRAM] PTR struct _IO_FILE
  6867 ;;		 -> sprintf@f(11), 
  6868 ;;  fmt             2   24[COMRAM] PTR const unsigned char 
  6869 ;;		 -> STR_6(8), STR_4(8), 
  6870 ;;  ap              1   26[COMRAM] PTR PTR void 
  6871 ;;		 -> sprintf@ap(1), 
  6872 ;; Auto vars:     Size  Location     Type
  6873 ;;  cfmt            2   27[COMRAM] PTR unsigned char 
  6874 ;;		 -> STR_6(8), STR_4(8), 
  6875 ;; Return value:  Size  Location     Type
  6876 ;;                  2   23[COMRAM] int 
  6877 ;; Registers used:
  6878 ;;		wreg, fsr1l, fsr1h, fsr2l, fsr2h, status,2, status,0, tblptrl, tblptrh, tblptru, cstack
  6879 ;; Tracked objects:
  6880 ;;		On entry : 0/0
  6881 ;;		On exit  : 0/0
  6882 ;;		Unchanged: 0/0
  6883 ;; Data sizes:     COMRAM   BANK0   BANK1   BANK2   BANK3   BANK4   BANK5
  6884 ;;      Params:         4       0       0       0       0       0       0
  6885 ;;      Locals:         2       0       0       0       0       0       0
  6886 ;;      Temps:          0       0       0       0       0       0       0
  6887 ;;      Totals:         6       0       0       0       0       0       0
  6888 ;;Total ram usage:        6 bytes
  6889 ;; Hardware stack levels used: 1
  6890 ;; Hardware stack levels required when called: 3
  6891 ;; This function calls:
  6892 ;;		_vfpfcnvrt
  6893 ;; This function is called by:
  6894 ;;		_sprintf
  6895 ;; This function uses a non-reentrant model
  6896 ;;
  6897                           
  6898                           	psect	text26
  6899   005E0C                     __ptext26:
  6900                           	callstack 0
  6901   005E0C                     _vfprintf:
  6902                           	callstack 22
  6903   005E0C                     
  6904                           ;/opt/microchip/xc8/v3.00/pic/sources/c99/common/doprnt.c: 1817: int vfprintf(FILE *fp, 
      +                          const char *fmt, va_list ap);/opt/microchip/xc8/v3.00/pic/sources/c99/common/doprnt.c: 1
      +                          818: {;/opt/microchip/xc8/v3.00/pic/sources/c99/common/doprnt.c: 1820:     char *cfmt;;/
      +                          opt/microchip/xc8/v3.00/pic/sources/c99/common/doprnt.c: 1822:     cfmt = (char *)fmt;
  6905   005E0C  C019  F01C         	movff	vfprintf@fmt,vfprintf@cfmt
  6906   005E10  C01A  F01D         	movff	vfprintf@fmt+1,vfprintf@cfmt+1
  6907                           
  6908                           ;/opt/microchip/xc8/v3.00/pic/sources/c99/common/doprnt.c: 1826:     while (*cfmt) {
  6909   005E14  EF14  F02F         	goto	i2l3018
  6910   005E18                     i2l3016:
  6911                           
  6912                           ;/opt/microchip/xc8/v3.00/pic/sources/c99/common/doprnt.c: 1830:    vfpfcnvrt(fp, &cfmt,
      +                           ap);
  6913   005E18  C018  F00B         	movff	vfprintf@fp,vfpfcnvrt@fp
  6914   005E1C  0E1C               	movlw	low vfprintf@cfmt
  6915   005E1E  6E0C               	movwf	vfpfcnvrt@fmt^0,c
  6916   005E20  C01B  F00D         	movff	vfprintf@ap,vfpfcnvrt@ap
  6917   005E24  EC74  F036         	call	_vfpfcnvrt	;wreg free
  6918   005E28                     i2l3018:
  6919                           
  6920                           ;/opt/microchip/xc8/v3.00/pic/sources/c99/common/doprnt.c: 1826:     while (*cfmt) {
  6921   005E28  C01C  FFF6         	movff	vfprintf@cfmt,tblptrl
  6922   005E2C  C01D  FFF7         	movff	vfprintf@cfmt+1,tblptrh
  6923   005E30                     	if	0	;tblptru may be non-zero
  6924   005E30                     	endif
  6925   005E30                     	if	0	;tblptru may be non-zero
  6926   005E30                     	endif
  6927   005E30  0008               	tblrd		*
  6928   005E32  50F5               	movf	tablat,w,c
  6929   005E34  0900               	iorlw	0
  6930   005E36  A4D8               	btfss	status,2,c
  6931   005E38  EF20  F02F         	goto	i2u367_41
  6932   005E3C  EF22  F02F         	goto	i2u367_40
  6933   005E40                     i2u367_41:
  6934   005E40  EF0C  F02F         	goto	i2l3016
  6935   005E44                     i2u367_40:
  6936   005E44                     
  6937                           ;/opt/microchip/xc8/v3.00/pic/sources/c99/common/doprnt.c: 1835:  return 0;
  6938   005E44  0E00               	movlw	0
  6939   005E46  6E19               	movwf	(?_vfprintf+1)^0,c
  6940   005E48  0E00               	movlw	0
  6941   005E4A  6E18               	movwf	?_vfprintf^0,c
  6942   005E4C  0012               	return		;funcret
  6943   005E4E                     __end_of_vfprintf:
  6944                           	callstack 0
  6945                           
  6946 ;; *************** function _vfpfcnvrt *****************
  6947 ;; Defined at:
  6948 ;;		line 1177 in file "/opt/microchip/xc8/v3.00/pic/sources/c99/common/doprnt.c"
  6949 ;; Parameters:    Size  Location     Type
  6950 ;;  fp              1   10[COMRAM] PTR struct _IO_FILE
  6951 ;;		 -> sprintf@f(11), 
  6952 ;;  fmt             1   11[COMRAM] PTR PTR unsigned char 
  6953 ;;		 -> vfprintf@cfmt(2), 
  6954 ;;  ap              1   12[COMRAM] PTR PTR void 
  6955 ;;		 -> sprintf@ap(1), 
  6956 ;; Auto vars:     Size  Location     Type
  6957 ;;  convarg         4   18[COMRAM] struct .
  6958 ;;  cp              2   16[COMRAM] PTR unsigned char 
  6959 ;;		 -> STR_6(8), STR_4(8), 
  6960 ;;  c               1   22[COMRAM] unsigned char 
  6961 ;;  done            1   15[COMRAM] _Bool 
  6962 ;; Return value:  Size  Location     Type
  6963 ;;                  1    wreg      void 
  6964 ;; Registers used:
  6965 ;;		wreg, fsr1l, fsr1h, fsr2l, fsr2h, status,2, status,0, tblptrl, tblptrh, tblptru, cstack
  6966 ;; Tracked objects:
  6967 ;;		On entry : 0/0
  6968 ;;		On exit  : 0/0
  6969 ;;		Unchanged: 0/0
  6970 ;; Data sizes:     COMRAM   BANK0   BANK1   BANK2   BANK3   BANK4   BANK5
  6971 ;;      Params:         3       0       0       0       0       0       0
  6972 ;;      Locals:         8       0       0       0       0       0       0
  6973 ;;      Temps:          2       0       0       0       0       0       0
  6974 ;;      Totals:        13       0       0       0       0       0       0
  6975 ;;Total ram usage:       13 bytes
  6976 ;; Hardware stack levels used: 1
  6977 ;; Hardware stack levels required when called: 2
  6978 ;; This function calls:
  6979 ;;		_abs
  6980 ;;		_fputc
  6981 ;;		i2___awdiv
  6982 ;;		i2___awmod
  6983 ;; This function is called by:
  6984 ;;		_vfprintf
  6985 ;; This function uses a non-reentrant model
  6986 ;;
  6987                           
  6988                           	psect	text27
  6989   006CE8                     __ptext27:
  6990                           	callstack 0
  6991   006CE8                     _vfpfcnvrt:
  6992                           	callstack 22
  6993   006CE8                     
  6994                           ;/opt/microchip/xc8/v3.00/pic/sources/c99/common/doprnt.c: 1177: vfpfcnvrt(FILE *fp, cha
      +                          r *fmt[], va_list ap);/opt/microchip/xc8/v3.00/pic/sources/c99/common/doprnt.c: 1178: {;
      +                          /opt/microchip/xc8/v3.00/pic/sources/c99/common/doprnt.c: 1179:     char c, *cp;;/opt/mi
      +                          crochip/xc8/v3.00/pic/sources/c99/common/doprnt.c: 1180:     _Bool done;;/opt/microchip/
      +                          xc8/v3.00/pic/sources/c99/common/doprnt.c: 1188:  } convarg;;/opt/microchip/xc8/v3.00/pi
      +                          c/sources/c99/common/doprnt.c: 1201:     if ((*fmt)[0] == '%') {
  6995   006CE8  500C               	movf	vfpfcnvrt@fmt^0,w,c
  6996   006CEA  6ED9               	movwf	fsr2l,c
  6997   006CEC  6ADA               	clrf	fsr2h,c
  6998   006CEE  CFDE FFF6          	movff	postinc2,tblptrl
  6999   006CF2  CFDD FFF7          	movff	postdec2,tblptrh
  7000   006CF6                     	if	0	;tblptru may be non-zero
  7001   006CF6                     	endif
  7002   006CF6                     	if	0	;tblptru may be non-zero
  7003   006CF6                     	endif
  7004   006CF6  0008               	tblrd		*
  7005   006CF8  50F5               	movf	tablat,w,c
  7006   006CFA  0A25               	xorlw	37
  7007   006CFC  A4D8               	btfss	status,2,c
  7008   006CFE  EF83  F036         	goto	i2u260_41
  7009   006D02  EF85  F036         	goto	i2u260_40
  7010   006D06                     i2u260_41:
  7011   006D06  EF4C  F037         	goto	i2l2474
  7012   006D0A                     i2u260_40:
  7013   006D0A                     
  7014                           ;/opt/microchip/xc8/v3.00/pic/sources/c99/common/doprnt.c: 1202:         ++*fmt;
  7015   006D0A  500C               	movf	vfpfcnvrt@fmt^0,w,c
  7016   006D0C  6ED9               	movwf	fsr2l,c
  7017   006D0E  6ADA               	clrf	fsr2h,c
  7018   006D10  2ADE               	incf	postinc2,f,c
  7019   006D12  0E00               	movlw	0
  7020   006D14  22DD               	addwfc	postdec2,f,c
  7021   006D16                     
  7022                           ;/opt/microchip/xc8/v3.00/pic/sources/c99/common/doprnt.c: 1204:         flags = width =
      +                           0;
  7023   006D16  0E00               	movlw	0
  7024   006D18  6E3B               	movwf	(_width+1)^0,c
  7025   006D1A  0E00               	movlw	0
  7026   006D1C  6E3A               	movwf	_width^0,c
  7027   006D1E  C03A  F040         	movff	_width,_flags
  7028   006D22                     
  7029                           ;/opt/microchip/xc8/v3.00/pic/sources/c99/common/doprnt.c: 1205:         prec = -1;
  7030   006D22  683C               	setf	_prec^0,c
  7031   006D24  683D               	setf	(_prec+1)^0,c
  7032   006D26                     
  7033                           ;/opt/microchip/xc8/v3.00/pic/sources/c99/common/doprnt.c: 1291:   cp = *fmt;
  7034   006D26  500C               	movf	vfpfcnvrt@fmt^0,w,c
  7035   006D28  6ED9               	movwf	fsr2l,c
  7036   006D2A  6ADA               	clrf	fsr2h,c
  7037   006D2C  CFDE F011          	movff	postinc2,vfpfcnvrt@cp
  7038   006D30  CFDD F012          	movff	postdec2,vfpfcnvrt@cp+1
  7039   006D34                     
  7040                           ;/opt/microchip/xc8/v3.00/pic/sources/c99/common/doprnt.c: 1361:   if (*cp == 'd' || *cp
      +                           == 'i') {
  7041   006D34  C011  FFF6         	movff	vfpfcnvrt@cp,tblptrl
  7042   006D38  C012  FFF7         	movff	vfpfcnvrt@cp+1,tblptrh
  7043   006D3C                     	if	0	;tblptru may be non-zero
  7044   006D3C                     	endif
  7045   006D3C                     	if	0	;tblptru may be non-zero
  7046   006D3C                     	endif
  7047   006D3C  0008               	tblrd		*
  7048   006D3E  50F5               	movf	tablat,w,c
  7049   006D40  0A64               	xorlw	100
  7050   006D42  B4D8               	btfsc	status,2,c
  7051   006D44  EFA6  F036         	goto	i2u261_41
  7052   006D48  EFA8  F036         	goto	i2u261_40
  7053   006D4C                     i2u261_41:
  7054   006D4C  EFB6  F036         	goto	i2l2444
  7055   006D50                     i2u261_40:
  7056   006D50  C011  FFF6         	movff	vfpfcnvrt@cp,tblptrl
  7057   006D54  C012  FFF7         	movff	vfpfcnvrt@cp+1,tblptrh
  7058   006D58                     	if	0	;tblptru may be non-zero
  7059   006D58                     	endif
  7060   006D58                     	if	0	;tblptru may be non-zero
  7061   006D58                     	endif
  7062   006D58  0008               	tblrd		*
  7063   006D5A  50F5               	movf	tablat,w,c
  7064   006D5C  0A69               	xorlw	105
  7065   006D5E  A4D8               	btfss	status,2,c
  7066   006D60  EFB4  F036         	goto	i2u262_41
  7067   006D64  EFB6  F036         	goto	i2u262_40
  7068   006D68                     i2u262_41:
  7069   006D68  EF44  F037         	goto	i2l2470
  7070   006D6C                     i2u262_40:
  7071   006D6C                     i2l2444:
  7072                           
  7073                           ;/opt/microchip/xc8/v3.00/pic/sources/c99/common/doprnt.c: 1404:    convarg.sint = (vfpf
      +                          _sint_t)(int)(*(int *)__va_arg(*(int **)ap, (int)0));
  7074   006D6C  500D               	movf	vfpfcnvrt@ap^0,w,c
  7075   006D6E  6ED9               	movwf	fsr2l,c
  7076   006D70  6ADA               	clrf	fsr2h,c
  7077   006D72  0E02               	movlw	2
  7078   006D74  26DF               	addwf	indf2,f,c
  7079   006D76  5CDF               	subwf	indf2,w,c
  7080   006D78  6ED9               	movwf	fsr2l,c
  7081   006D7A  6ADA               	clrf	fsr2h,c
  7082   006D7C  CFDE F013          	movff	postinc2,vfpfcnvrt@convarg
  7083   006D80  CFDE F014          	movff	postinc2,vfpfcnvrt@convarg+1
  7084   006D84                     
  7085                           ;/opt/microchip/xc8/v3.00/pic/sources/c99/common/doprnt.c: 1406:    *fmt = cp+1;
  7086   006D84  0E01               	movlw	1
  7087   006D86  2411               	addwf	vfpfcnvrt@cp^0,w,c
  7088   006D88  6E0E               	movwf	??_vfpfcnvrt^0,c
  7089   006D8A  0E00               	movlw	0
  7090   006D8C  2012               	addwfc	(vfpfcnvrt@cp+1)^0,w,c
  7091   006D8E  6E0F               	movwf	(??_vfpfcnvrt+1)^0,c
  7092   006D90  500C               	movf	vfpfcnvrt@fmt^0,w,c
  7093   006D92  6ED9               	movwf	fsr2l,c
  7094   006D94  6ADA               	clrf	fsr2h,c
  7095   006D96  C00E  FFDE         	movff	??_vfpfcnvrt,postinc2
  7096   006D9A  C00F  FFDD         	movff	??_vfpfcnvrt+1,postdec2
  7097   006D9E                     
  7098                           ;/opt/microchip/xc8/v3.00/pic/sources/c99/common/doprnt.c: 1408:    c = sizeof(dbuf);
  7099   006D9E  0E20               	movlw	32
  7100   006DA0  6E17               	movwf	vfpfcnvrt@c^0,c
  7101                           
  7102                           ;/opt/microchip/xc8/v3.00/pic/sources/c99/common/doprnt.c: 1409:    done = convarg.sint 
      +                          < 0;
  7103   006DA2  BE14               	btfsc	(vfpfcnvrt@convarg+1)^0,7,c
  7104   006DA4  EFD6  F036         	goto	i2u263_41
  7105   006DA8  EFD9  F036         	goto	i2u263_40
  7106   006DAC                     i2u263_41:
  7107   006DAC  0E01               	movlw	1
  7108   006DAE  EFDA  F036         	goto	i2u264_40
  7109   006DB2                     i2u263_40:
  7110   006DB2  0E00               	movlw	0
  7111   006DB4                     i2u264_40:
  7112   006DB4  6E10               	movwf	vfpfcnvrt@done^0,c
  7113   006DB6                     i2l2450:
  7114                           
  7115                           ;/opt/microchip/xc8/v3.00/pic/sources/c99/common/doprnt.c: 1411:     dbuf[--c] = abs(con
      +                          varg.sint % 10) + '0';
  7116   006DB6  0617               	decf	vfpfcnvrt@c^0,f,c
  7117   006DB8  5017               	movf	vfpfcnvrt@c^0,w,c
  7118   006DBA  0FC0               	addlw	low _dbuf
  7119   006DBC  6ED9               	movwf	fsr2l,c
  7120   006DBE  6ADA               	clrf	fsr2h,c
  7121   006DC0  C013  F001         	movff	vfpfcnvrt@convarg,i2___awmod@dividend
  7122   006DC4  C014  F002         	movff	vfpfcnvrt@convarg+1,i2___awmod@dividend+1
  7123   006DC8  0E00               	movlw	0
  7124   006DCA  6E04               	movwf	(i2___awmod@divisor+1)^0,c
  7125   006DCC  0E0A               	movlw	10
  7126   006DCE  6E03               	movwf	i2___awmod@divisor^0,c
  7127   006DD0  EC85  F030         	call	i2___awmod	;wreg free
  7128   006DD4  C001  F007         	movff	?i2___awmod,abs@a
  7129   006DD8  C002  F008         	movff	?i2___awmod+1,abs@a+1
  7130   006DDC  EC92  F02E         	call	_abs	;wreg free
  7131   006DE0  5007               	movf	?_abs^0,w,c
  7132   006DE2  0F30               	addlw	48
  7133   006DE4  6EDF               	movwf	indf2,c
  7134   006DE6                     
  7135                           ;/opt/microchip/xc8/v3.00/pic/sources/c99/common/doprnt.c: 1412:     convarg.sint /= 10;
  7136   006DE6  C013  F001         	movff	vfpfcnvrt@convarg,i2___awdiv@dividend
  7137   006DEA  C014  F002         	movff	vfpfcnvrt@convarg+1,i2___awdiv@dividend+1
  7138   006DEE  0E00               	movlw	0
  7139   006DF0  6E04               	movwf	(i2___awdiv@divisor+1)^0,c
  7140   006DF2  0E0A               	movlw	10
  7141   006DF4  6E03               	movwf	i2___awdiv@divisor^0,c
  7142   006DF6  EC34  F031         	call	i2___awdiv	;wreg free
  7143   006DFA  C001  F013         	movff	?i2___awdiv,vfpfcnvrt@convarg
  7144   006DFE  C002  F014         	movff	?i2___awdiv+1,vfpfcnvrt@convarg+1
  7145   006E02                     
  7146                           ;/opt/microchip/xc8/v3.00/pic/sources/c99/common/doprnt.c: 1416:    } while (convarg.sin
      +                          t != 0 && c != 0);
  7147   006E02  5013               	movf	vfpfcnvrt@convarg^0,w,c
  7148   006E04  1014               	iorwf	(vfpfcnvrt@convarg+1)^0,w,c
  7149   006E06  B4D8               	btfsc	status,2,c
  7150   006E08  EF08  F037         	goto	i2u265_41
  7151   006E0C  EF0A  F037         	goto	i2u265_40
  7152   006E10                     i2u265_41:
  7153   006E10  EF12  F037         	goto	i2l2458
  7154   006E14                     i2u265_40:
  7155   006E14  5017               	movf	vfpfcnvrt@c^0,w,c
  7156   006E16  A4D8               	btfss	status,2,c
  7157   006E18  EF10  F037         	goto	i2u266_41
  7158   006E1C  EF12  F037         	goto	i2u266_40
  7159   006E20                     i2u266_41:
  7160   006E20  EFDB  F036         	goto	i2l2450
  7161   006E24                     i2u266_40:
  7162   006E24                     i2l2458:
  7163                           
  7164                           ;/opt/microchip/xc8/v3.00/pic/sources/c99/common/doprnt.c: 1417:    if (c != 0 && done) 
      +                          {
  7165   006E24  5017               	movf	vfpfcnvrt@c^0,w,c
  7166   006E26  B4D8               	btfsc	status,2,c
  7167   006E28  EF18  F037         	goto	i2u267_41
  7168   006E2C  EF1A  F037         	goto	i2u267_40
  7169   006E30                     i2u267_41:
  7170   006E30  EF39  F037         	goto	i2l2468
  7171   006E34                     i2u267_40:
  7172   006E34  5010               	movf	vfpfcnvrt@done^0,w,c
  7173   006E36  B4D8               	btfsc	status,2,c
  7174   006E38  EF20  F037         	goto	i2u268_41
  7175   006E3C  EF22  F037         	goto	i2u268_40
  7176   006E40                     i2u268_41:
  7177   006E40  EF39  F037         	goto	i2l2468
  7178   006E44                     i2u268_40:
  7179   006E44                     
  7180                           ;/opt/microchip/xc8/v3.00/pic/sources/c99/common/doprnt.c: 1418:     dbuf[--c] = '-';
  7181   006E44  0617               	decf	vfpfcnvrt@c^0,f,c
  7182   006E46  5017               	movf	vfpfcnvrt@c^0,w,c
  7183   006E48  0FC0               	addlw	low _dbuf
  7184   006E4A  6ED9               	movwf	fsr2l,c
  7185   006E4C  6ADA               	clrf	fsr2h,c
  7186   006E4E  0E2D               	movlw	45
  7187   006E50  6EDF               	movwf	indf2,c
  7188   006E52  EF39  F037         	goto	i2l2468
  7189   006E56                     i2l2464:
  7190                           
  7191                           ;/opt/microchip/xc8/v3.00/pic/sources/c99/common/doprnt.c: 1424:     fputc(dbuf[c++], fp
      +                          );
  7192   006E56  5017               	movf	vfpfcnvrt@c^0,w,c
  7193   006E58  0FC0               	addlw	low _dbuf
  7194   006E5A  6ED9               	movwf	fsr2l,c
  7195   006E5C  6ADA               	clrf	fsr2h,c
  7196   006E5E  50DF               	movf	indf2,w,c
  7197   006E60  6E0E               	movwf	??_vfpfcnvrt^0,c
  7198   006E62  500E               	movf	??_vfpfcnvrt^0,w,c
  7199   006E64  6E01               	movwf	fputc@c^0,c
  7200   006E66  6A02               	clrf	(fputc@c+1)^0,c
  7201   006E68  C00B  F003         	movff	vfpfcnvrt@fp,fputc@fp
  7202   006E6C  EC30  F030         	call	_fputc	;wreg free
  7203   006E70  2A17               	incf	vfpfcnvrt@c^0,f,c
  7204   006E72                     i2l2468:
  7205                           
  7206                           ;/opt/microchip/xc8/v3.00/pic/sources/c99/common/doprnt.c: 1423:    while (c != sizeof(d
      +                          buf)) {
  7207   006E72  0E20               	movlw	32
  7208   006E74  1817               	xorwf	vfpfcnvrt@c^0,w,c
  7209   006E76  A4D8               	btfss	status,2,c
  7210   006E78  EF40  F037         	goto	i2u269_41
  7211   006E7C  EF42  F037         	goto	i2u269_40
  7212   006E80                     i2u269_41:
  7213   006E80  EF2B  F037         	goto	i2l2464
  7214   006E84                     i2u269_40:
  7215   006E84  EF5D  F037         	goto	i2l904
  7216   006E88                     i2l2470:
  7217                           
  7218                           ;/opt/microchip/xc8/v3.00/pic/sources/c99/common/doprnt.c: 1806:         ++*fmt;
  7219   006E88  500C               	movf	vfpfcnvrt@fmt^0,w,c
  7220   006E8A  6ED9               	movwf	fsr2l,c
  7221   006E8C  6ADA               	clrf	fsr2h,c
  7222   006E8E  2ADE               	incf	postinc2,f,c
  7223   006E90  0E00               	movlw	0
  7224   006E92  22DD               	addwfc	postdec2,f,c
  7225   006E94  EF5D  F037         	goto	i2l904
  7226   006E98                     i2l2474:
  7227                           
  7228                           ;/opt/microchip/xc8/v3.00/pic/sources/c99/common/doprnt.c: 1811:     fputc((int)(*fmt)[0
      +                          ], fp);
  7229   006E98  500C               	movf	vfpfcnvrt@fmt^0,w,c
  7230   006E9A  6ED9               	movwf	fsr2l,c
  7231   006E9C  6ADA               	clrf	fsr2h,c
  7232   006E9E  CFDE FFF6          	movff	postinc2,tblptrl
  7233   006EA2  CFDD FFF7          	movff	postdec2,tblptrh
  7234   006EA6                     	if	0	;tblptru may be non-zero
  7235   006EA6                     	endif
  7236   006EA6                     	if	0	;tblptru may be non-zero
  7237   006EA6                     	endif
  7238   006EA6  0008               	tblrd		*
  7239   006EA8  50F5               	movf	tablat,w,c
  7240   006EAA  6E01               	movwf	fputc@c^0,c
  7241   006EAC  6A02               	clrf	(fputc@c+1)^0,c
  7242   006EAE  C00B  F003         	movff	vfpfcnvrt@fp,fputc@fp
  7243   006EB2  EC30  F030         	call	_fputc	;wreg free
  7244   006EB6  EF44  F037         	goto	i2l2470
  7245   006EBA                     i2l904:
  7246   006EBA  0012               	return		;funcret
  7247   006EBC                     __end_of_vfpfcnvrt:
  7248                           	callstack 0
  7249                           
  7250 ;; *************** function i2___awmod *****************
  7251 ;; Defined at:
  7252 ;;		line 7 in file "/opt/microchip/xc8/v3.00/pic/sources/c99/common/awmod.c"
  7253 ;; Parameters:    Size  Location     Type
  7254 ;;  dividend        2    0[COMRAM] int 
  7255 ;;  divisor         2    2[COMRAM] int 
  7256 ;; Auto vars:     Size  Location     Type
  7257 ;;  sign            1    5[COMRAM] unsigned char 
  7258 ;;  counter         1    4[COMRAM] unsigned char 
  7259 ;; Return value:  Size  Location     Type
  7260 ;;                  2    0[COMRAM] int 
  7261 ;; Registers used:
  7262 ;;		wreg, status,2, status,0
  7263 ;; Tracked objects:
  7264 ;;		On entry : 0/0
  7265 ;;		On exit  : 0/0
  7266 ;;		Unchanged: 0/0
  7267 ;; Data sizes:     COMRAM   BANK0   BANK1   BANK2   BANK3   BANK4   BANK5
  7268 ;;      Params:         4       0       0       0       0       0       0
  7269 ;;      Locals:         2       0       0       0       0       0       0
  7270 ;;      Temps:          0       0       0       0       0       0       0
  7271 ;;      Totals:         6       0       0       0       0       0       0
  7272 ;;Total ram usage:        6 bytes
  7273 ;; Hardware stack levels used: 1
  7274 ;; This function calls:
  7275 ;;		Nothing
  7276 ;; This function is called by:
  7277 ;;		_vfpfcnvrt
  7278 ;; This function uses a non-reentrant model
  7279 ;;
  7280                           
  7281                           	psect	text28
  7282   00610A                     __ptext28:
  7283                           	callstack 0
  7284   00610A                     i2___awmod:
  7285                           	callstack 23
  7286   00610A  6A06               	clrf	i2___awmod@sign^0,c
  7287   00610C  BE02               	btfsc	(i2___awmod@dividend+1)^0,7,c
  7288   00610E  EF8D  F030         	goto	i2u214_40
  7289   006112  EF8B  F030         	goto	i2u214_41
  7290   006116                     i2u214_41:
  7291   006116  EF93  F030         	goto	i2l2204
  7292   00611A                     i2u214_40:
  7293   00611A  6C01               	negf	i2___awmod@dividend^0,c
  7294   00611C  1E02               	comf	(i2___awmod@dividend+1)^0,f,c
  7295   00611E  B0D8               	btfsc	status,0,c
  7296   006120  2A02               	incf	(i2___awmod@dividend+1)^0,f,c
  7297   006122  0E01               	movlw	1
  7298   006124  6E06               	movwf	i2___awmod@sign^0,c
  7299   006126                     i2l2204:
  7300   006126  BE04               	btfsc	(i2___awmod@divisor+1)^0,7,c
  7301   006128  EF9A  F030         	goto	i2u215_40
  7302   00612C  EF98  F030         	goto	i2u215_41
  7303   006130                     i2u215_41:
  7304   006130  EF9E  F030         	goto	i2l2208
  7305   006134                     i2u215_40:
  7306   006134  6C03               	negf	i2___awmod@divisor^0,c
  7307   006136  1E04               	comf	(i2___awmod@divisor+1)^0,f,c
  7308   006138  B0D8               	btfsc	status,0,c
  7309   00613A  2A04               	incf	(i2___awmod@divisor+1)^0,f,c
  7310   00613C                     i2l2208:
  7311   00613C  5003               	movf	i2___awmod@divisor^0,w,c
  7312   00613E  1004               	iorwf	(i2___awmod@divisor+1)^0,w,c
  7313   006140  B4D8               	btfsc	status,2,c
  7314   006142  EFA5  F030         	goto	i2u216_41
  7315   006146  EFA7  F030         	goto	i2u216_40
  7316   00614A                     i2u216_41:
  7317   00614A  EFCB  F030         	goto	i2l2224
  7318   00614E                     i2u216_40:
  7319   00614E  0E01               	movlw	1
  7320   006150  6E05               	movwf	i2___awmod@counter^0,c
  7321   006152  EFAF  F030         	goto	i2l2214
  7322   006156                     i2l2212:
  7323   006156  90D8               	bcf	status,0,c
  7324   006158  3603               	rlcf	i2___awmod@divisor^0,f,c
  7325   00615A  3604               	rlcf	(i2___awmod@divisor+1)^0,f,c
  7326   00615C  2A05               	incf	i2___awmod@counter^0,f,c
  7327   00615E                     i2l2214:
  7328   00615E  AE04               	btfss	(i2___awmod@divisor+1)^0,7,c
  7329   006160  EFB4  F030         	goto	i2u217_41
  7330   006164  EFB6  F030         	goto	i2u217_40
  7331   006168                     i2u217_41:
  7332   006168  EFAB  F030         	goto	i2l2212
  7333   00616C                     i2u217_40:
  7334   00616C                     i2l2216:
  7335   00616C  5003               	movf	i2___awmod@divisor^0,w,c
  7336   00616E  5C01               	subwf	i2___awmod@dividend^0,w,c
  7337   006170  5004               	movf	(i2___awmod@divisor+1)^0,w,c
  7338   006172  5802               	subwfb	(i2___awmod@dividend+1)^0,w,c
  7339   006174  A0D8               	btfss	status,0,c
  7340   006176  EFBF  F030         	goto	i2u218_41
  7341   00617A  EFC1  F030         	goto	i2u218_40
  7342   00617E                     i2u218_41:
  7343   00617E  EFC5  F030         	goto	i2l2220
  7344   006182                     i2u218_40:
  7345   006182  5003               	movf	i2___awmod@divisor^0,w,c
  7346   006184  5E01               	subwf	i2___awmod@dividend^0,f,c
  7347   006186  5004               	movf	(i2___awmod@divisor+1)^0,w,c
  7348   006188  5A02               	subwfb	(i2___awmod@dividend+1)^0,f,c
  7349   00618A                     i2l2220:
  7350   00618A  90D8               	bcf	status,0,c
  7351   00618C  3204               	rrcf	(i2___awmod@divisor+1)^0,f,c
  7352   00618E  3203               	rrcf	i2___awmod@divisor^0,f,c
  7353   006190  2E05               	decfsz	i2___awmod@counter^0,f,c
  7354   006192  EFB6  F030         	goto	i2l2216
  7355   006196                     i2l2224:
  7356   006196  5006               	movf	i2___awmod@sign^0,w,c
  7357   006198  B4D8               	btfsc	status,2,c
  7358   00619A  EFD1  F030         	goto	i2u219_41
  7359   00619E  EFD3  F030         	goto	i2u219_40
  7360   0061A2                     i2u219_41:
  7361   0061A2  EFD7  F030         	goto	i2l2228
  7362   0061A6                     i2u219_40:
  7363   0061A6  6C01               	negf	i2___awmod@dividend^0,c
  7364   0061A8  1E02               	comf	(i2___awmod@dividend+1)^0,f,c
  7365   0061AA  B0D8               	btfsc	status,0,c
  7366   0061AC  2A02               	incf	(i2___awmod@dividend+1)^0,f,c
  7367   0061AE                     i2l2228:
  7368   0061AE  C001  F001         	movff	i2___awmod@dividend,?i2___awmod
  7369   0061B2  C002  F002         	movff	i2___awmod@dividend+1,?i2___awmod+1
  7370   0061B6  0012               	return		;funcret
  7371   0061B8                     __end_ofi2___awmod:
  7372                           	callstack 0
  7373                           
  7374 ;; *************** function i2___awdiv *****************
  7375 ;; Defined at:
  7376 ;;		line 7 in file "/opt/microchip/xc8/v3.00/pic/sources/c99/common/awdiv.c"
  7377 ;; Parameters:    Size  Location     Type
  7378 ;;  dividend        2    0[COMRAM] int 
  7379 ;;  divisor         2    2[COMRAM] int 
  7380 ;; Auto vars:     Size  Location     Type
  7381 ;;  quotient        2    6[COMRAM] int 
  7382 ;;  sign            1    5[COMRAM] unsigned char 
  7383 ;;  counter         1    4[COMRAM] unsigned char 
  7384 ;; Return value:  Size  Location     Type
  7385 ;;                  2    0[COMRAM] int 
  7386 ;; Registers used:
  7387 ;;		wreg, status,2, status,0
  7388 ;; Tracked objects:
  7389 ;;		On entry : 0/0
  7390 ;;		On exit  : 0/0
  7391 ;;		Unchanged: 0/0
  7392 ;; Data sizes:     COMRAM   BANK0   BANK1   BANK2   BANK3   BANK4   BANK5
  7393 ;;      Params:         4       0       0       0       0       0       0
  7394 ;;      Locals:         4       0       0       0       0       0       0
  7395 ;;      Temps:          0       0       0       0       0       0       0
  7396 ;;      Totals:         8       0       0       0       0       0       0
  7397 ;;Total ram usage:        8 bytes
  7398 ;; Hardware stack levels used: 1
  7399 ;; This function calls:
  7400 ;;		Nothing
  7401 ;; This function is called by:
  7402 ;;		_vfpfcnvrt
  7403 ;; This function uses a non-reentrant model
  7404 ;;
  7405                           
  7406                           	psect	text29
  7407   006268                     __ptext29:
  7408                           	callstack 0
  7409   006268                     i2___awdiv:
  7410                           	callstack 23
  7411   006268  6A06               	clrf	i2___awdiv@sign^0,c
  7412   00626A  BE04               	btfsc	(i2___awdiv@divisor+1)^0,7,c
  7413   00626C  EF3C  F031         	goto	i2u208_40
  7414   006270  EF3A  F031         	goto	i2u208_41
  7415   006274                     i2u208_41:
  7416   006274  EF42  F031         	goto	i2l2160
  7417   006278                     i2u208_40:
  7418   006278  6C03               	negf	i2___awdiv@divisor^0,c
  7419   00627A  1E04               	comf	(i2___awdiv@divisor+1)^0,f,c
  7420   00627C  B0D8               	btfsc	status,0,c
  7421   00627E  2A04               	incf	(i2___awdiv@divisor+1)^0,f,c
  7422   006280  0E01               	movlw	1
  7423   006282  6E06               	movwf	i2___awdiv@sign^0,c
  7424   006284                     i2l2160:
  7425   006284  BE02               	btfsc	(i2___awdiv@dividend+1)^0,7,c
  7426   006286  EF49  F031         	goto	i2u209_40
  7427   00628A  EF47  F031         	goto	i2u209_41
  7428   00628E                     i2u209_41:
  7429   00628E  EF4F  F031         	goto	i2l2166
  7430   006292                     i2u209_40:
  7431   006292  6C01               	negf	i2___awdiv@dividend^0,c
  7432   006294  1E02               	comf	(i2___awdiv@dividend+1)^0,f,c
  7433   006296  B0D8               	btfsc	status,0,c
  7434   006298  2A02               	incf	(i2___awdiv@dividend+1)^0,f,c
  7435   00629A  0E01               	movlw	1
  7436   00629C  1A06               	xorwf	i2___awdiv@sign^0,f,c
  7437   00629E                     i2l2166:
  7438   00629E  0E00               	movlw	0
  7439   0062A0  6E08               	movwf	(i2___awdiv@quotient+1)^0,c
  7440   0062A2  0E00               	movlw	0
  7441   0062A4  6E07               	movwf	i2___awdiv@quotient^0,c
  7442   0062A6  5003               	movf	i2___awdiv@divisor^0,w,c
  7443   0062A8  1004               	iorwf	(i2___awdiv@divisor+1)^0,w,c
  7444   0062AA  B4D8               	btfsc	status,2,c
  7445   0062AC  EF5A  F031         	goto	i2u210_41
  7446   0062B0  EF5C  F031         	goto	i2u210_40
  7447   0062B4                     i2u210_41:
  7448   0062B4  EF84  F031         	goto	i2l2188
  7449   0062B8                     i2u210_40:
  7450   0062B8  0E01               	movlw	1
  7451   0062BA  6E05               	movwf	i2___awdiv@counter^0,c
  7452   0062BC  EF64  F031         	goto	i2l2174
  7453   0062C0                     i2l2172:
  7454   0062C0  90D8               	bcf	status,0,c
  7455   0062C2  3603               	rlcf	i2___awdiv@divisor^0,f,c
  7456   0062C4  3604               	rlcf	(i2___awdiv@divisor+1)^0,f,c
  7457   0062C6  2A05               	incf	i2___awdiv@counter^0,f,c
  7458   0062C8                     i2l2174:
  7459   0062C8  AE04               	btfss	(i2___awdiv@divisor+1)^0,7,c
  7460   0062CA  EF69  F031         	goto	i2u211_41
  7461   0062CE  EF6B  F031         	goto	i2u211_40
  7462   0062D2                     i2u211_41:
  7463   0062D2  EF60  F031         	goto	i2l2172
  7464   0062D6                     i2u211_40:
  7465   0062D6                     i2l2176:
  7466   0062D6  90D8               	bcf	status,0,c
  7467   0062D8  3607               	rlcf	i2___awdiv@quotient^0,f,c
  7468   0062DA  3608               	rlcf	(i2___awdiv@quotient+1)^0,f,c
  7469   0062DC  5003               	movf	i2___awdiv@divisor^0,w,c
  7470   0062DE  5C01               	subwf	i2___awdiv@dividend^0,w,c
  7471   0062E0  5004               	movf	(i2___awdiv@divisor+1)^0,w,c
  7472   0062E2  5802               	subwfb	(i2___awdiv@dividend+1)^0,w,c
  7473   0062E4  A0D8               	btfss	status,0,c
  7474   0062E6  EF77  F031         	goto	i2u212_41
  7475   0062EA  EF79  F031         	goto	i2u212_40
  7476   0062EE                     i2u212_41:
  7477   0062EE  EF7E  F031         	goto	i2l2184
  7478   0062F2                     i2u212_40:
  7479   0062F2  5003               	movf	i2___awdiv@divisor^0,w,c
  7480   0062F4  5E01               	subwf	i2___awdiv@dividend^0,f,c
  7481   0062F6  5004               	movf	(i2___awdiv@divisor+1)^0,w,c
  7482   0062F8  5A02               	subwfb	(i2___awdiv@dividend+1)^0,f,c
  7483   0062FA  8007               	bsf	i2___awdiv@quotient^0,0,c
  7484   0062FC                     i2l2184:
  7485   0062FC  90D8               	bcf	status,0,c
  7486   0062FE  3204               	rrcf	(i2___awdiv@divisor+1)^0,f,c
  7487   006300  3203               	rrcf	i2___awdiv@divisor^0,f,c
  7488   006302  2E05               	decfsz	i2___awdiv@counter^0,f,c
  7489   006304  EF6B  F031         	goto	i2l2176
  7490   006308                     i2l2188:
  7491   006308  5006               	movf	i2___awdiv@sign^0,w,c
  7492   00630A  B4D8               	btfsc	status,2,c
  7493   00630C  EF8A  F031         	goto	i2u213_41
  7494   006310  EF8C  F031         	goto	i2u213_40
  7495   006314                     i2u213_41:
  7496   006314  EF90  F031         	goto	i2l2192
  7497   006318                     i2u213_40:
  7498   006318  6C07               	negf	i2___awdiv@quotient^0,c
  7499   00631A  1E08               	comf	(i2___awdiv@quotient+1)^0,f,c
  7500   00631C  B0D8               	btfsc	status,0,c
  7501   00631E  2A08               	incf	(i2___awdiv@quotient+1)^0,f,c
  7502   006320                     i2l2192:
  7503   006320  C007  F001         	movff	i2___awdiv@quotient,?i2___awdiv
  7504   006324  C008  F002         	movff	i2___awdiv@quotient+1,?i2___awdiv+1
  7505   006328  0012               	return		;funcret
  7506   00632A                     __end_ofi2___awdiv:
  7507                           	callstack 0
  7508                           
  7509 ;; *************** function _fputc *****************
  7510 ;; Defined at:
  7511 ;;		line 8 in file "/opt/microchip/xc8/v3.00/pic/sources/c99/common/nf_fputc.c"
  7512 ;; Parameters:    Size  Location     Type
  7513 ;;  c               2    0[COMRAM] int 
  7514 ;;  fp              1    2[COMRAM] PTR struct _IO_FILE
  7515 ;;		 -> sprintf@f(11), 
  7516 ;; Auto vars:     Size  Location     Type
  7517 ;;		None
  7518 ;; Return value:  Size  Location     Type
  7519 ;;                  2    0[COMRAM] int 
  7520 ;; Registers used:
  7521 ;;		wreg, fsr1l, fsr1h, fsr2l, fsr2h, status,2, status,0, cstack
  7522 ;; Tracked objects:
  7523 ;;		On entry : 0/0
  7524 ;;		On exit  : 0/0
  7525 ;;		Unchanged: 0/0
  7526 ;; Data sizes:     COMRAM   BANK0   BANK1   BANK2   BANK3   BANK4   BANK5
  7527 ;;      Params:         3       0       0       0       0       0       0
  7528 ;;      Locals:         0       0       0       0       0       0       0
  7529 ;;      Temps:          5       0       0       0       0       0       0
  7530 ;;      Totals:         8       0       0       0       0       0       0
  7531 ;;Total ram usage:        8 bytes
  7532 ;; Hardware stack levels used: 1
  7533 ;; Hardware stack levels required when called: 1
  7534 ;; This function calls:
  7535 ;;		_putch
  7536 ;; This function is called by:
  7537 ;;		_vfpfcnvrt
  7538 ;; This function uses a non-reentrant model
  7539 ;;
  7540                           
  7541                           	psect	text30
  7542   006060                     __ptext30:
  7543                           	callstack 0
  7544   006060                     _fputc:
  7545                           	callstack 22
  7546   006060  5003               	movf	fputc@fp^0,w,c
  7547   006062  B4D8               	btfsc	status,2,c
  7548   006064  EF36  F030         	goto	i2u203_41
  7549   006068  EF38  F030         	goto	i2u203_40
  7550   00606C                     i2u203_41:
  7551   00606C  EF40  F030         	goto	i2l2138
  7552   006070                     i2u203_40:
  7553   006070  5003               	movf	fputc@fp^0,w,c
  7554   006072  A4D8               	btfss	status,2,c
  7555   006074  EF3E  F030         	goto	i2u204_41
  7556   006078  EF40  F030         	goto	i2u204_40
  7557   00607C                     i2u204_41:
  7558   00607C  EF45  F030         	goto	i2l2140
  7559   006080                     i2u204_40:
  7560   006080                     i2l2138:
  7561   006080  5001               	movf	fputc@c^0,w,c
  7562   006082  EC27  F02E         	call	_putch
  7563   006086  EF84  F030         	goto	i2l929
  7564   00608A                     i2l2140:
  7565   00608A  5003               	movf	fputc@fp^0,w,c
  7566   00608C  6ED9               	movwf	fsr2l,c
  7567   00608E  6ADA               	clrf	fsr2h,c
  7568   006090  0E09               	movlw	9
  7569   006092  26D9               	addwf	fsr2l,f,c
  7570   006094  50DE               	movf	postinc2,w,c
  7571   006096  10DE               	iorwf	postinc2,w,c
  7572   006098  B4D8               	btfsc	status,2,c
  7573   00609A  EF51  F030         	goto	i2u205_41
  7574   00609E  EF53  F030         	goto	i2u205_40
  7575   0060A2                     i2u205_41:
  7576   0060A2  EF6C  F030         	goto	i2l2144
  7577   0060A6                     i2u205_40:
  7578   0060A6  5003               	movf	fputc@fp^0,w,c
  7579   0060A8  6ED9               	movwf	fsr2l,c
  7580   0060AA  6ADA               	clrf	fsr2h,c
  7581   0060AC  0E09               	movlw	9
  7582   0060AE  26D9               	addwf	fsr2l,f,c
  7583   0060B0  5003               	movf	fputc@fp^0,w,c
  7584   0060B2  6EE1               	movwf	fsr1l,c
  7585   0060B4  6AE2               	clrf	fsr1h,c
  7586   0060B6  0E02               	movlw	2
  7587   0060B8  26E1               	addwf	fsr1l,f,c
  7588   0060BA  50DE               	movf	postinc2,w,c
  7589   0060BC  5CE6               	subwf	postinc1,w,c
  7590   0060BE  50E6               	movf	postinc1,w,c
  7591   0060C0  0A80               	xorlw	128
  7592   0060C2  6E08               	movwf	(??_fputc+4)^0,c
  7593   0060C4  50DE               	movf	postinc2,w,c
  7594   0060C6  0A80               	xorlw	128
  7595   0060C8  5808               	subwfb	(??_fputc+4)^0,w,c
  7596   0060CA  B0D8               	btfsc	status,0,c
  7597   0060CC  EF6A  F030         	goto	i2u206_41
  7598   0060D0  EF6C  F030         	goto	i2u206_40
  7599   0060D4                     i2u206_41:
  7600   0060D4  EF84  F030         	goto	i2l929
  7601   0060D8                     i2u206_40:
  7602   0060D8                     i2l2144:
  7603   0060D8  5003               	movf	fputc@fp^0,w,c
  7604   0060DA  6ED9               	movwf	fsr2l,c
  7605   0060DC  6ADA               	clrf	fsr2h,c
  7606   0060DE  0E02               	movlw	2
  7607   0060E0  26D9               	addwf	fsr2l,f,c
  7608   0060E2  50DF               	movf	indf2,w,c
  7609   0060E4  6E04               	movwf	??_fputc^0,c
  7610   0060E6  5003               	movf	fputc@fp^0,w,c
  7611   0060E8  6ED9               	movwf	fsr2l,c
  7612   0060EA  6ADA               	clrf	fsr2h,c
  7613   0060EC  50DF               	movf	indf2,w,c
  7614   0060EE  2404               	addwf	??_fputc^0,w,c
  7615   0060F0  6ED9               	movwf	fsr2l,c
  7616   0060F2  6ADA               	clrf	fsr2h,c
  7617   0060F4  C001  FFDF         	movff	fputc@c,indf2
  7618   0060F8  5003               	movf	fputc@fp^0,w,c
  7619   0060FA  6ED9               	movwf	fsr2l,c
  7620   0060FC  6ADA               	clrf	fsr2h,c
  7621   0060FE  0E02               	movlw	2
  7622   006100  26D9               	addwf	fsr2l,f,c
  7623   006102  2ADE               	incf	postinc2,f,c
  7624   006104  0E00               	movlw	0
  7625   006106  22DD               	addwfc	postdec2,f,c
  7626   006108                     i2l929:
  7627   006108  0012               	return		;funcret
  7628   00610A                     __end_of_fputc:
  7629                           	callstack 0
  7630                           
  7631 ;; *************** function _putch *****************
  7632 ;; Defined at:
  7633 ;;		line 7 in file "/opt/microchip/xc8/v3.00/pic/sources/c99/common/putch.c"
  7634 ;; Parameters:    Size  Location     Type
  7635 ;;  c               1    wreg     unsigned char 
  7636 ;; Auto vars:     Size  Location     Type
  7637 ;;  c               1    0[COMRAM] unsigned char 
  7638 ;; Return value:  Size  Location     Type
  7639 ;;                  1    wreg      void 
  7640 ;; Registers used:
  7641 ;;		wreg
  7642 ;; Tracked objects:
  7643 ;;		On entry : 0/0
  7644 ;;		On exit  : 0/0
  7645 ;;		Unchanged: 0/0
  7646 ;; Data sizes:     COMRAM   BANK0   BANK1   BANK2   BANK3   BANK4   BANK5
  7647 ;;      Params:         0       0       0       0       0       0       0
  7648 ;;      Locals:         0       0       0       0       0       0       0
  7649 ;;      Temps:          0       0       0       0       0       0       0
  7650 ;;      Totals:         0       0       0       0       0       0       0
  7651 ;;Total ram usage:        0 bytes
  7652 ;; Hardware stack levels used: 1
  7653 ;; This function calls:
  7654 ;;		Nothing
  7655 ;; This function is called by:
  7656 ;;		_fputc
  7657 ;; This function uses a non-reentrant model
  7658 ;;
  7659                           
  7660                           	psect	text31
  7661   005C4E                     __ptext31:
  7662                           	callstack 0
  7663   005C4E                     _putch:
  7664                           	callstack 22
  7665   005C4E  0012               	return		;funcret
  7666   005C50                     __end_of_putch:
  7667                           	callstack 0
  7668                           
  7669 ;; *************** function _abs *****************
  7670 ;; Defined at:
  7671 ;;		line 1 in file "/opt/microchip/xc8/v3.00/pic/sources/c99/common/abs.c"
  7672 ;; Parameters:    Size  Location     Type
  7673 ;;  a               2    6[COMRAM] int 
  7674 ;; Auto vars:     Size  Location     Type
  7675 ;;		None
  7676 ;; Return value:  Size  Location     Type
  7677 ;;                  2    6[COMRAM] int 
  7678 ;; Registers used:
  7679 ;;		wreg, status,2, status,0
  7680 ;; Tracked objects:
  7681 ;;		On entry : 0/0
  7682 ;;		On exit  : 0/0
  7683 ;;		Unchanged: 0/0
  7684 ;; Data sizes:     COMRAM   BANK0   BANK1   BANK2   BANK3   BANK4   BANK5
  7685 ;;      Params:         2       0       0       0       0       0       0
  7686 ;;      Locals:         0       0       0       0       0       0       0
  7687 ;;      Temps:          2       0       0       0       0       0       0
  7688 ;;      Totals:         4       0       0       0       0       0       0
  7689 ;;Total ram usage:        4 bytes
  7690 ;; Hardware stack levels used: 1
  7691 ;; This function calls:
  7692 ;;		Nothing
  7693 ;; This function is called by:
  7694 ;;		_vfpfcnvrt
  7695 ;; This function uses a non-reentrant model
  7696 ;;
  7697                           
  7698                           	psect	text32
  7699   005D24                     __ptext32:
  7700                           	callstack 0
  7701   005D24                     _abs:
  7702                           	callstack 23
  7703   005D24  BE08               	btfsc	(abs@a+1)^0,7,c
  7704   005D26  EF97  F02E         	goto	i2u207_41
  7705   005D2A  EF99  F02E         	goto	i2u207_40
  7706   005D2E                     i2u207_41:
  7707   005D2E  EF9F  F02E         	goto	i2l914
  7708   005D32                     i2u207_40:
  7709   005D32  C007  F007         	movff	abs@a,?_abs
  7710   005D36  C008  F008         	movff	abs@a+1,?_abs+1
  7711   005D3A  EFAB  F02E         	goto	i2l917
  7712   005D3E                     i2l914:
  7713   005D3E  C007  F009         	movff	abs@a,??_abs
  7714   005D42  C008  F00A         	movff	abs@a+1,??_abs+1
  7715   005D46  1E09               	comf	??_abs^0,f,c
  7716   005D48  1E0A               	comf	(??_abs+1)^0,f,c
  7717   005D4A  4A09               	infsnz	??_abs^0,f,c
  7718   005D4C  2A0A               	incf	(??_abs+1)^0,f,c
  7719   005D4E  C009  F007         	movff	??_abs,?_abs
  7720   005D52  C00A  F008         	movff	??_abs+1,?_abs+1
  7721   005D56                     i2l917:
  7722   005D56  0012               	return		;funcret
  7723   005D58                     __end_of_abs:
  7724                           	callstack 0
  7725                           
  7726 ;; *************** function _rxUsart *****************
  7727 ;; Defined at:
  7728 ;;		line 192 in file "main.c"
  7729 ;; Parameters:    Size  Location     Type
  7730 ;;		None
  7731 ;; Auto vars:     Size  Location     Type
  7732 ;;		None
  7733 ;; Return value:  Size  Location     Type
  7734 ;;                  1    wreg      unsigned char 
  7735 ;; Registers used:
  7736 ;;		wreg, status,2
  7737 ;; Tracked objects:
  7738 ;;		On entry : 0/0
  7739 ;;		On exit  : 0/0
  7740 ;;		Unchanged: 0/0
  7741 ;; Data sizes:     COMRAM   BANK0   BANK1   BANK2   BANK3   BANK4   BANK5
  7742 ;;      Params:         0       0       0       0       0       0       0
  7743 ;;      Locals:         0       0       0       0       0       0       0
  7744 ;;      Temps:          0       0       0       0       0       0       0
  7745 ;;      Totals:         0       0       0       0       0       0       0
  7746 ;;Total ram usage:        0 bytes
  7747 ;; Hardware stack levels used: 1
  7748 ;; This function calls:
  7749 ;;		Nothing
  7750 ;; This function is called by:
  7751 ;;		_rotina_ISR
  7752 ;; This function uses a non-reentrant model
  7753 ;;
  7754                           
  7755                           	psect	text33
  7756   005C52                     __ptext33:
  7757                           	callstack 0
  7758   005C52                     _rxUsart:
  7759                           	callstack 26
  7760   005C52                     
  7761                           ;main.c: 193:     return RCREG;
  7762   005C52  50AE               	movf	174,w,c	;volatile
  7763   005C54  0012               	return		;funcret
  7764   005C56                     __end_of_rxUsart:
  7765                           	callstack 0
  7766                           
  7767 ;; *************** function _memset *****************
  7768 ;; Defined at:
  7769 ;;		line 3 in file "/opt/microchip/xc8/v3.00/pic/sources/c99/common/memset.c"
  7770 ;; Parameters:    Size  Location     Type
  7771 ;;  dest            1    0[COMRAM] PTR void 
  7772 ;;		 -> buffer(5), 
  7773 ;;  c               2    1[COMRAM] int 
  7774 ;;  n               2    3[COMRAM] unsigned int 
  7775 ;; Auto vars:     Size  Location     Type
  7776 ;;  p               1    5[COMRAM] PTR unsigned char 
  7777 ;;		 -> buffer(5), 
  7778 ;; Return value:  Size  Location     Type
  7779 ;;                  1    0[COMRAM] PTR void 
  7780 ;; Registers used:
  7781 ;;		wreg, fsr2l, fsr2h, status,2, status,0
  7782 ;; Tracked objects:
  7783 ;;		On entry : 0/0
  7784 ;;		On exit  : 0/0
  7785 ;;		Unchanged: 0/0
  7786 ;; Data sizes:     COMRAM   BANK0   BANK1   BANK2   BANK3   BANK4   BANK5
  7787 ;;      Params:         5       0       0       0       0       0       0
  7788 ;;      Locals:         1       0       0       0       0       0       0
  7789 ;;      Temps:          0       0       0       0       0       0       0
  7790 ;;      Totals:         6       0       0       0       0       0       0
  7791 ;;Total ram usage:        6 bytes
  7792 ;; Hardware stack levels used: 1
  7793 ;; This function calls:
  7794 ;;		Nothing
  7795 ;; This function is called by:
  7796 ;;		_rotina_ISR
  7797 ;; This function uses a non-reentrant model
  7798 ;;
  7799                           
  7800                           	psect	text34
  7801   005CF4                     __ptext34:
  7802                           	callstack 0
  7803   005CF4                     _memset:
  7804                           	callstack 26
  7805   005CF4  C001  F006         	movff	memset@dest,memset@p
  7806   005CF8  EF84  F02E         	goto	i2l3170
  7807   005CFC                     i2l3166:
  7808   005CFC  5006               	movf	memset@p^0,w,c
  7809   005CFE  6ED9               	movwf	fsr2l,c
  7810   005D00  6ADA               	clrf	fsr2h,c
  7811   005D02  C002  FFDF         	movff	memset@c,indf2
  7812   005D06  2A06               	incf	memset@p^0,f,c
  7813   005D08                     i2l3170:
  7814   005D08  0604               	decf	memset@n^0,f,c
  7815   005D0A  A0D8               	btfss	status,0,c
  7816   005D0C  0605               	decf	(memset@n+1)^0,f,c
  7817   005D0E  2804               	incf	memset@n^0,w,c
  7818   005D10  E106               	bnz	i2u378_41
  7819   005D12  2805               	incf	(memset@n+1)^0,w,c
  7820   005D14  A4D8               	btfss	status,2,c
  7821   005D16  EF8F  F02E         	goto	i2u378_41
  7822   005D1A  EF91  F02E         	goto	i2u378_40
  7823   005D1E                     i2u378_41:
  7824   005D1E  EF7E  F02E         	goto	i2l3166
  7825   005D22                     i2u378_40:
  7826   005D22  0012               	return		;funcret
  7827   005D24                     __end_of_memset:
  7828                           	callstack 0
  7829                           
  7830                           	psect	rparam
  7831   000001                     ___rparam_used  equ	1
  7832   000000                     ___param_bank   equ	0
  7833   000000                     __Lparam        equ	__Lrparam
  7834   000000                     __Hparam        equ	__Hrparam
  7835                           
  7836                           	psect	temp
  7837   00004B                     btemp:
  7838                           	callstack 0
  7839   00004B                     	ds	1
  7840   00004B                     int$flags       set	btemp
  7841   00004C                     wtemp8          set	btemp+1
  7842   00004C                     ttemp5          set	btemp+1
  7843   00004F                     ttemp6          set	btemp+4
  7844   000053                     ttemp7          set	btemp+8
  7845                           
  7846                           	psect	config
  7847                           
  7848                           ; Padding undefined space
  7849   300000                     	org	3145728
  7850   300000  FF                 	db	255
  7851                           
  7852                           ;Config register CONFIG1H @ 0x300001
  7853                           ;	Oscillator Selection bits
  7854                           ;	OSC = IRCIO67, Internal oscillator block, port function on RA6 and RA7
  7855                           ;	Fail-Safe Clock Monitor Enable bit
  7856                           ;	FCMEN = OFF, Fail-Safe Clock Monitor disabled
  7857                           ;	Internal/External Oscillator Switchover bit
  7858                           ;	IESO = OFF, Oscillator Switchover mode disabled
  7859   300001                     	org	3145729
  7860   300001  08                 	db	8
  7861                           
  7862                           ;Config register CONFIG2L @ 0x300002
  7863                           ;	Power-up Timer Enable bit
  7864                           ;	PWRT = OFF, PWRT disabled
  7865                           ;	Brown-out Reset Enable bits
  7866                           ;	BOREN = BOHW, Brown-out Reset enabled in hardware only (SBOREN is disabled)
  7867                           ;	Brown-out Reset Voltage bits
  7868                           ;	BORV = 3, VBOR set to 2.1V
  7869   300002                     	org	3145730
  7870   300002  1F                 	db	31
  7871                           
  7872                           ;Config register CONFIG2H @ 0x300003
  7873                           ;	Watchdog Timer Enable bit
  7874                           ;	WDT = OFF, WDT disabled (control is placed on the SWDTEN bit)
  7875                           ;	Watchdog Timer Postscale Select bits
  7876                           ;	WDTPS = 32768, 1:32768
  7877   300003                     	org	3145731
  7878   300003  1E                 	db	30
  7879                           
  7880                           ; Padding undefined space
  7881   300004                     	org	3145732
  7882   300004  FF                 	db	255
  7883                           
  7884                           ;Config register CONFIG3H @ 0x300005
  7885                           ;	PORTB A/D Enable bit
  7886                           ;	PBADEN = ON, PORTB<4:0> pins are configured as analog input channels on Reset
  7887                           ;	Low-Power Timer 1 Oscillator Enable bit
  7888                           ;	LPT1OSC = OFF, Timer1 configured for higher power operation
  7889                           ;	MCLR Pin Enable bit
  7890                           ;	MCLRE = ON, MCLR pin enabled; RE3 input pin disabled
  7891   300005                     	org	3145733
  7892   300005  82                 	db	130
  7893                           
  7894                           ;Config register CONFIG4L @ 0x300006
  7895                           ;	Stack Full/Underflow Reset Enable bit
  7896                           ;	STVREN = ON, Stack full/underflow will cause Reset
  7897                           ;	Single-Supply ICSP Enable bit
  7898                           ;	LVP = OFF, Single-Supply ICSP disabled
  7899                           ;	Boot Block Size Select bit
  7900                           ;	BBSIZ = 1024, 1K words (2K bytes) boot block
  7901                           ;	Extended Instruction Set Enable bit
  7902                           ;	XINST = OFF, Instruction set extension and Indexed Addressing mode disabled (Legacy mo
      +                          de)
  7903                           ;	Background Debugger Enable bit
  7904                           ;	DEBUG = 0x1, unprogrammed default
  7905   300006                     	org	3145734
  7906   300006  81                 	db	129
  7907                           
  7908                           ; Padding undefined space
  7909   300007                     	org	3145735
  7910   300007  FF                 	db	255
  7911                           
  7912                           ;Config register CONFIG5L @ 0x300008
  7913                           ;	Code Protection bit
  7914                           ;	CP0 = OFF, Block 0 (000800-001FFFh) not code-protected
  7915                           ;	Code Protection bit
  7916                           ;	CP1 = OFF, Block 1 (002000-003FFFh) not code-protected
  7917                           ;	Code Protection bit
  7918                           ;	CP2 = OFF, Block 2 (004000-005FFFh) not code-protected
  7919                           ;	Code Protection bit
  7920                           ;	CP3 = OFF, Block 3 (006000-007FFFh) not code-protected
  7921   300008                     	org	3145736
  7922   300008  0F                 	db	15
  7923                           
  7924                           ;Config register CONFIG5H @ 0x300009
  7925                           ;	Boot Block Code Protection bit
  7926                           ;	CPB = OFF, Boot block (000000-0007FFh) not code-protected
  7927                           ;	Data EEPROM Code Protection bit
  7928                           ;	CPD = OFF, Data EEPROM not code-protected
  7929   300009                     	org	3145737
  7930   300009  C0                 	db	192
  7931                           
  7932                           ;Config register CONFIG6L @ 0x30000A
  7933                           ;	Write Protection bit
  7934                           ;	WRT0 = OFF, Block 0 (000800-001FFFh) not write-protected
  7935                           ;	Write Protection bit
  7936                           ;	WRT1 = OFF, Block 1 (002000-003FFFh) not write-protected
  7937                           ;	Write Protection bit
  7938                           ;	WRT2 = OFF, Block 2 (004000-005FFFh) not write-protected
  7939                           ;	Write Protection bit
  7940                           ;	WRT3 = OFF, Block 3 (006000-007FFFh) not write-protected
  7941   30000A                     	org	3145738
  7942   30000A  0F                 	db	15
  7943                           
  7944                           ;Config register CONFIG6H @ 0x30000B
  7945                           ;	Configuration Register Write Protection bit
  7946                           ;	WRTC = OFF, Configuration registers (300000-3000FFh) not write-protected
  7947                           ;	Boot Block Write Protection bit
  7948                           ;	WRTB = OFF, Boot block (000000-0007FFh) not write-protected
  7949                           ;	Data EEPROM Write Protection bit
  7950                           ;	WRTD = OFF, Data EEPROM not write-protected
  7951   30000B                     	org	3145739
  7952   30000B  E0                 	db	224
  7953                           
  7954                           ;Config register CONFIG7L @ 0x30000C
  7955                           ;	Table Read Protection bit
  7956                           ;	EBTR0 = OFF, Block 0 (000800-001FFFh) not protected from table reads executed in other
      +                           blocks
  7957                           ;	Table Read Protection bit
  7958                           ;	EBTR1 = OFF, Block 1 (002000-003FFFh) not protected from table reads executed in other
      +                           blocks
  7959                           ;	Table Read Protection bit
  7960                           ;	EBTR2 = OFF, Block 2 (004000-005FFFh) not protected from table reads executed in other
      +                           blocks
  7961                           ;	Table Read Protection bit
  7962                           ;	EBTR3 = OFF, Block 3 (006000-007FFFh) not protected from table reads executed in other
      +                           blocks
  7963   30000C                     	org	3145740
  7964   30000C  0F                 	db	15
  7965                           
  7966                           ;Config register CONFIG7H @ 0x30000D
  7967                           ;	Boot Block Table Read Protection bit
  7968                           ;	EBTRB = OFF, Boot block (000000-0007FFh) not protected from table reads executed in ot
      +                          her blocks
  7969   30000D                     	org	3145741
  7970   30000D  40                 	db	64
  7971                           tosu	equ	0xFFF
  7972                           tosh	equ	0xFFE
  7973                           tosl	equ	0xFFD
  7974                           stkptr	equ	0xFFC
  7975                           pclatu	equ	0xFFB
  7976                           pclath	equ	0xFFA
  7977                           pcl	equ	0xFF9
  7978                           tblptru	equ	0xFF8
  7979                           tblptrh	equ	0xFF7
  7980                           tblptrl	equ	0xFF6
  7981                           tablat	equ	0xFF5
  7982                           prodh	equ	0xFF4
  7983                           prodl	equ	0xFF3
  7984                           indf0	equ	0xFEF
  7985                           postinc0	equ	0xFEE
  7986                           postdec0	equ	0xFED
  7987                           preinc0	equ	0xFEC
  7988                           plusw0	equ	0xFEB
  7989                           fsr0h	equ	0xFEA
  7990                           fsr0l	equ	0xFE9
  7991                           wreg	equ	0xFE8
  7992                           indf1	equ	0xFE7
  7993                           postinc1	equ	0xFE6
  7994                           postdec1	equ	0xFE5
  7995                           preinc1	equ	0xFE4
  7996                           plusw1	equ	0xFE3
  7997                           fsr1h	equ	0xFE2
  7998                           fsr1l	equ	0xFE1
  7999                           bsr	equ	0xFE0
  8000                           indf2	equ	0xFDF
  8001                           postinc2	equ	0xFDE
  8002                           postdec2	equ	0xFDD
  8003                           preinc2	equ	0xFDC
  8004                           plusw2	equ	0xFDB
  8005                           fsr2h	equ	0xFDA
  8006                           fsr2l	equ	0xFD9
  8007                           status	equ	0xFD8

Data Sizes:
    Strings     178
    Constant    10
    Data        2
    BSS         51
    Persistent  0
    Stack       0

Auto Spaces:
    Space          Size  Autos    Used
    COMRAM           94     57      74
    BANK0           160     96     132
    BANK1           256      0       0
    BANK2           256      0       0
    BANK3           256      0       0
    BANK4           256      0       0
    BANK5           256      0       0

Pointer List with Targets:

    enviarString@str	PTR unsigned char  size(2) Largest target is 128
		 -> str(COMRAM[5]), STR_1(CODE[128]), STR_10(CODE[10]), STR_8(CODE[10]), 
		 -> STR_9(CODE[10]), 

    f$.$buffer	PTR unsigned char  size(1) Largest target is 5
		 -> str(COMRAM[5]), 

    f$.$source	PTR const unsigned char  size(2) Largest target is 0

    fputc@fp	PTR struct _IO_FILE size(1) Largest target is 11
		 -> sprintf@f(COMRAM[11]), 

    fputc@fp$.$buffer	PTR unsigned char  size(1) Largest target is 5
		 -> str(COMRAM[5]), 

    fputc@fp$.$source	PTR const unsigned char  size(2) Largest target is 0

    memset@dest	PTR void  size(1) Largest target is 5
		 -> buffer(COMRAM[5]), 

    memset@p	PTR unsigned char  size(1) Largest target is 5
		 -> buffer(COMRAM[5]), 

    S1307$buffer	PTR unsigned char  size(1) Largest target is 5
		 -> str(COMRAM[5]), 

    S1307$source	PTR const unsigned char  size(2) Largest target is 0

    sp__memset	PTR void  size(1) Largest target is 5
		 -> buffer(COMRAM[5]), 

    sprintf@ap	PTR void [1] size(1) Largest target is 2
		 -> ?_sprintf(COMRAM[2]), 

    sprintf@fmt	PTR const unsigned char  size(2) Largest target is 8
		 -> STR_4(CODE[8]), STR_6(CODE[8]), 

    sprintf@s	PTR unsigned char  size(1) Largest target is 5
		 -> str(COMRAM[5]), 

    strcmp@l	PTR const unsigned char  size(1) Largest target is 5
		 -> buffer(COMRAM[5]), 

    strcmp@r	PTR const unsigned char  size(2) Largest target is 4
		 -> STR_2(CODE[4]), STR_3(CODE[3]), STR_5(CODE[3]), STR_7(CODE[2]), 

    vfpfcnvrt@ap	PTR PTR void  size(1) Largest target is 1
		 -> sprintf@ap(COMRAM[1]), 

    vfpfcnvrt@cp	PTR unsigned char  size(2) Largest target is 8
		 -> STR_4(CODE[8]), STR_6(CODE[8]), 

    vfpfcnvrt@fmt	PTR PTR unsigned char  size(1) Largest target is 2
		 -> vfprintf@cfmt(COMRAM[2]), 

    vfpfcnvrt@fp	PTR struct _IO_FILE size(1) Largest target is 11
		 -> sprintf@f(COMRAM[11]), 

    vfprintf@ap	PTR PTR void  size(1) Largest target is 1
		 -> sprintf@ap(COMRAM[1]), 

    vfprintf@cfmt	PTR unsigned char  size(2) Largest target is 8
		 -> STR_4(CODE[8]), STR_6(CODE[8]), 

    vfprintf@fmt	PTR const unsigned char  size(2) Largest target is 8
		 -> STR_4(CODE[8]), STR_6(CODE[8]), 

    vfprintf@fp	PTR struct _IO_FILE size(1) Largest target is 11
		 -> sprintf@f(COMRAM[11]), 


Critical Paths under _main in COMRAM

    None.

Critical Paths under _rotina_ISR in COMRAM

    _rotina_ISR->_sprintf
    i2_enviarString->i2_txUsart
    _sprintf->_vfprintf
    _vfprintf->_vfpfcnvrt
    _vfpfcnvrt->_abs
    _abs->i2___awmod

Critical Paths under _main in BANK0

    _main->_displayTemperatura
    _setup->_enviarString
    _regularTemperatura->___flge
    _enviarString->_txUsart
    _lerTemperatura->___flmul
    ___fldiv->___xxtofl
    _displayTemperatura->___fltol
    ___fltol->___flmul
    ___flsub->___fladd
    ___flmul->___fldiv

Critical Paths under _rotina_ISR in BANK0

    None.

Critical Paths under _main in BANK1

    None.

Critical Paths under _rotina_ISR in BANK1

    None.

Critical Paths under _main in BANK2

    None.

Critical Paths under _rotina_ISR in BANK2

    None.

Critical Paths under _main in BANK3

    None.

Critical Paths under _rotina_ISR in BANK3

    None.

Critical Paths under _main in BANK4

    None.

Critical Paths under _rotina_ISR in BANK4

    None.

Critical Paths under _main in BANK5

    None.

Critical Paths under _rotina_ISR in BANK5

    None.

Call Graph Tables:

 ---------------------------------------------------------------------------------
 (Depth) Function   	        Calls       Base Space   Used Autos Params    Refs
 ---------------------------------------------------------------------------------
 (0) _main                                                 4     4      0    8695
                                             92 BANK0      4     4      0
                 _displayTemperatura
                     _lerTemperatura
                 _regularTemperatura
                              _setup
 ---------------------------------------------------------------------------------
 (1) _setup                                                0     0      0      78
                          _configAdc
                        _configTimer
                        _configUsart
                       _enviarString
 ---------------------------------------------------------------------------------
 (2) _configUsart                                          0     0      0       0
 ---------------------------------------------------------------------------------
 (2) _configTimer                                          0     0      0       0
 ---------------------------------------------------------------------------------
 (2) _configAdc                                            0     0      0       0
 ---------------------------------------------------------------------------------
 (1) _regularTemperatura                                   4     0      4     379
                                             12 BANK0      4     0      4
                             ___flge
                       _enviarString
 ---------------------------------------------------------------------------------
 (2) _enviarString                                         2     0      2      78
                                              1 BANK0      2     0      2
                            _txUsart
 ---------------------------------------------------------------------------------
 (3) _txUsart                                              1     1      0      29
                                              0 BANK0      1     1      0
 ---------------------------------------------------------------------------------
 (2) ___flge                                              12     4      8     190
                                              0 BANK0     12     4      8
 ---------------------------------------------------------------------------------
 (1) _lerTemperatura                                       8     4      4    2954
                                             64 BANK0      8     4      4
                            ___fldiv
                            ___flmul
                           ___xxtofl
 ---------------------------------------------------------------------------------
 (2) ___fldiv                                             25    17      8    1123
                                             14 BANK0     25    17      8
                           ___xxtofl (ARG)
 ---------------------------------------------------------------------------------
 (1) _displayTemperatura                                  18    14      4    5239
                                             74 BANK0     18    14      4
                            ___awdiv
                            ___awmod
                            ___flmul
                            ___flsub
                            ___fltol
                           ___xxtofl
                        _display7Seg
                      _limparDisplay
 ---------------------------------------------------------------------------------
 (2) _limparDisplay                                        0     0      0       0
 ---------------------------------------------------------------------------------
 (2) _display7Seg                                         14    12      2     247
                                              0 BANK0     14    12      2
 ---------------------------------------------------------------------------------
 (2) ___xxtofl                                            14    10      4     338
                                              0 BANK0     14    10      4
 ---------------------------------------------------------------------------------
 (2) ___fltol                                             10     6      4     231
                                             64 BANK0     10     6      4
                            ___flmul (ARG)
                            ___flsub (ARG)
                           ___xxtofl (ARG)
 ---------------------------------------------------------------------------------
 (2) ___flsub                                              8     0      8    2033
                                             16 BANK0      8     0      8
                            ___fladd
                           ___xxtofl (ARG)
 ---------------------------------------------------------------------------------
 (3) ___fladd                                             16     8      8    1986
                                              0 BANK0     16     8      8
 ---------------------------------------------------------------------------------
 (2) ___flmul                                             25    17      8    1470
                                             39 BANK0     25    17      8
                            ___fldiv (ARG)
                            ___flsub (ARG)
                           ___xxtofl (ARG)
 ---------------------------------------------------------------------------------
 (2) ___awmod                                              6     2      4     298
                                              0 BANK0      6     2      4
 ---------------------------------------------------------------------------------
 (2) ___awdiv                                              8     4      4     302
                                              0 BANK0      8     4      4
 ---------------------------------------------------------------------------------
 Estimated maximum stack depth 3
 ---------------------------------------------------------------------------------
 (Depth) Function   	        Calls       Base Space   Used Autos Params    Refs
 ---------------------------------------------------------------------------------
 (4) _rotina_ISR                                          11    11      0    2124
                                             46 COMRAM    11    11      0
                             _memset
                            _rxUsart
                            _sprintf
                             _strcmp
                     i2_enviarString
 ---------------------------------------------------------------------------------
 (5) i2_enviarString                                       2     0      2      76
                                              1 COMRAM     2     0      2
                          i2_txUsart
 ---------------------------------------------------------------------------------
 (6) i2_txUsart                                            1     1      0      29
                                              0 COMRAM     1     1      0
 ---------------------------------------------------------------------------------
 (5) _strcmp                                               4     1      3     120
                                              0 COMRAM     4     1      3
 ---------------------------------------------------------------------------------
 (5) _sprintf                                             19    14      5    1762
                                             29 COMRAM    17    12      5
                           _vfprintf
 ---------------------------------------------------------------------------------
 (6) _vfprintf                                             6     2      4    1559
                                             23 COMRAM     6     2      4
                          _vfpfcnvrt
 ---------------------------------------------------------------------------------
 (7) _vfpfcnvrt                                           13    10      3    1434
                                             10 COMRAM    13    10      3
                                _abs
                              _fputc
                          i2___awdiv
                          i2___awmod
 ---------------------------------------------------------------------------------
 (8) i2___awmod                                            6     2      4     298
                                              0 COMRAM     6     2      4
 ---------------------------------------------------------------------------------
 (8) i2___awdiv                                            8     4      4     302
                                              0 COMRAM     8     4      4
 ---------------------------------------------------------------------------------
 (8) _fputc                                                8     5      3     230
                                              0 COMRAM     8     5      3
                              _putch
 ---------------------------------------------------------------------------------
 (9) _putch                                                1     1      0       0
 ---------------------------------------------------------------------------------
 (8) _abs                                                  4     2      2      67
                                              6 COMRAM     4     2      2
                          i2___awmod (ARG)
 ---------------------------------------------------------------------------------
 (5) _rxUsart                                              0     0      0       0
 ---------------------------------------------------------------------------------
 (5) _memset                                               6     1      5      99
                                              0 COMRAM     6     1      5
 ---------------------------------------------------------------------------------
 Estimated maximum stack depth 9
 ---------------------------------------------------------------------------------

 Call Graph Graphs:

 _main (ROOT)
   _displayTemperatura
     ___awdiv
     ___awmod
     ___flmul
       ___fldiv (ARG)
         ___xxtofl (ARG)
       ___flsub (ARG)
         ___fladd
         ___xxtofl (ARG)
       ___xxtofl (ARG)
     ___flsub
     ___fltol
       ___flmul (ARG)
       ___flsub (ARG)
       ___xxtofl (ARG)
     ___xxtofl
     _display7Seg
     _limparDisplay
   _lerTemperatura
     ___fldiv
     ___flmul
     ___xxtofl
   _regularTemperatura
     ___flge
     _enviarString
       _txUsart
   _setup
     _configAdc
     _configTimer
     _configUsart
     _enviarString

 _rotina_ISR (ROOT)
   _memset
   _rxUsart
   _sprintf
     _vfprintf
       _vfpfcnvrt
         _abs
           i2___awmod (ARG)
         _fputc
           _putch
         i2___awdiv
         i2___awmod
   _strcmp
   i2_enviarString
     i2_txUsart

Address spaces:
Name               Size   Autos  Total    Usage
BIGRAM            1535      0       0      0.0%
BITBIGSFRll        649      0       0      0.0%
BITBANK5           256      0       0      0.0%
BANK5              256      0       0      0.0%
BITBANK4           256      0       0      0.0%
BANK4              256      0       0      0.0%
BITBANK3           256      0       0      0.0%
BANK3              256      0       0      0.0%
BITBANK2           256      0       0      0.0%
BANK2              256      0       0      0.0%
BITBANK1           256      0       0      0.0%
BANK1              256      0       0      0.0%
BITBANK0           160      0       0      0.0%
BANK0              160     96     132     82.5%
BITCOMRAM           94      0       0      0.0%
COMRAM              94     57      74     78.7%
BITBIGSFRh          82      0       0      0.0%
BITBIGSFRlh         35      0       0      0.0%
STACK                0      0       0      0.0%
DATA                 0      0     206      0.0%


Microchip Technology PIC18 Macro Assembler V3.00 build 20241204225717 
Symbol Table                                                                                   Thu Jan 16 21:01:05 2025

              ?_display7Seg 0060                ___fldiv@aexp 0086                ___fldiv@bexp 0085  
              ___fldiv@sign 007E                          l99 6710                ___awdiv@sign 0065  
                       l110 5DCC                         l135 5C82                         l144 5FD2  
                       l152 683C                         l161 6994                         l170 5C66  
                       l138 5C94                         l155 605E                         l413 63EC  
                       l165 6AE8                         l173 5CCC                         l167 6B2E  
                       l176 5CF2                         l426 6266                         l179 5CAC  
                       l452 64F2                         l710 7B70                         l711 7B5E  
                       l447 64AC                         l800 7984                         l712 7B24  
                       l803 781A                         l804 7838                         l724 7D18  
                       l813 7946                         l805 7890                         l806 787E  
                       l743 7E00                         l727 7C8A                         l719 7E3C  
                       l479 65FA                         l736 7D58                         l752 5E94  
                       l840 6CE6                         l737 7D46                         l851 6C7E  
                       l844 6C22                         l764 755C                         l837 6B8A  
                       l766 73C0                         l775 7406                         l776 7424  
                       l777 747C                         l769 7384                         l778 746A  
                       l796 7624                         _abs 5D24                         _str 0041  
              ___awmod@sign 0065                         wreg 0FE8                ___flmul@aexp 0098  
              ___flmul@bexp 0099                ___flmul@sign 0093                ___flmul@temp 009E  
              ___flmul@prod 009A                ___fltol@exp1 00A9                        ?_abs 0007  
                      l3000 6C8E                        l3010 6CD6                        l3002 6C92  
                      l2300 7AA8                        l3004 6CB6                        l3100 675A  
                      l2310 7ABC                        l2302 7AAC                        l3006 6CC6  
                      l3110 679A                        l3102 675C                        l3030 5D94  
                      l2400 7D68                        l2320 7B1C                        l2312 7AC0  
                      l2304 7AB0                        l2240 79A2                        l3008 6CD4  
                      l2232 5C82                        l3120 67E0                        l3112 67CE  
                      l3104 675E                        l3040 5DAA                        l3032 5DA2  
                      l3200 66A4                        l2410 7DCE                        l2402 7D74  
                      l2330 7B52                        l2322 7B32                        l2306 7AB4  
                      l2314 7AC4                        l2250 79D6                        l2242 79A4  
                      l2234 5C90                        l3130 6836                        l3114 67DA  
                      l3122 67E6                        l3106 6760                        l3050 5DBA  
                      l3042 5DAC                        l3034 5DA4                        l3202 66C0  
                      l2420 7E16                        l2412 7DDE                        l2404 7D82  
                      l2340 7BA2                        l2332 7B5C                        l2324 7B3E  
                      l2316 7AF0                        l2308 7AB8                        l2260 7A06  
                      l2244 79B4                        l2252 79DC                        l2236 7986  
                      l3132 6838                        l3124 67F4                        l3116 67DC  
                      l3108 6766                        l2500 5C9A                        l3052 5DBC  
                      l3044 5DAE                        l3036 5DA6                        l3028 5D90  
                      l3204 66DC                        l2422 7E1C                        l2414 7DFE  
                      l2406 7DBC                        l2350 7BDE                        l2342 7BB2  
                      l2334 7B7E                        l2326 7B42                        l2318 7B0C  
                      l2270 7A3C                        l2262 7A0C                        l2254 79EC  
                      l2246 79C4                        l2238 7994                        l3070 6A6C  
                      l3062 6996                        l3134 683A                        l3126 6828  
                      l3118 67DE                        l2510 5CA4                        l2502 5C9C  
                      l3054 5DBE                        l3046 5DB2                        l3038 5DA8  
                      l3206 66E8                        l2424 7E2A                        l2416 7E0E  
                      l2408 7DBE                        l2360 7C24                        l2352 7BEC  
                      l2344 7BC0                        l2336 7B8E                        l2328 7B50  
                      l2280 7A76                        l2272 7A4C                        l2264 7A1A  
                      l2256 79F2                        l2248 79D4                        l3080 6A96  
                      l3072 6A74                        l3064 69B2                        l3056 5FD4  
                      l2520 5F6C                        l3128 6834                        l2512 5CA6  
                      l2504 5C9E                        l3048 5DB6                        l3208 6704  
                      l2426 7E2C                        l2418 7E14                        l2370 7CA0  
                      l2362 7C58                        l2354 7BEE                        l2346 7BCE  
                      l2290 7A94                        l2282 7A84                        l2274 7A4E  
                      l2266 7A1C                        l2258 7A04                        l2530 6856  
                      l3090 6AF6                        l3082 6AAA                        l3066 6A30  
                      l2610 7300                        l2602 72DC                        l3058 5FEC  
                      l2522 5F90                        l2514 5CA8                        l2506 5CA0  
                      l2700 75AC                        l2380 7CDC                        l2372 7CB0  
                      l2364 7C5A                        l2356 7BF8                        l2348 7BDA  
                      l2292 7A98                        l2284 7A88                        l2268 7A2C  
                      l2276 7A54                        l2540 68E6                        l2532 6874  
                      l3092 6B10                        l3084 6AAC                        l3068 6A4E  
                      l2620 7350                        l2612 731A                        l2604 72EC  
                      l2524 5F96                        l2516 5CAA                        l2508 5CA2  
                      l2710 75DC                        l2702 75B2                        l2390 7D08  
                      l2382 7CDE                        l2366 7C6A                        l2358 7BFE  
                      l2294 7A9C                        l2286 7A8C                        l2278 7A64  
                      l2542 690C                        l2534 6880                        l2550 5C56  
                      l3094 6B14                        l3086 6AC6                        l3078 6A7E  
                      l2630 73AC                        l2622 7360                        l2614 732A  
                      l2606 72EC                        l2526 5FC6                        l2518 5F68  
                      l3190 663A                        l3182 65FC                        l2800 7940  
                      l2720 7614                        l2712 75DE                        l2704 75C2  
                      l2384 7CEC                        l2376 7CC4                        l2392 7D0A  
                      l2368 7C7A                        l2296 7AA0                        l2288 7A90  
                      l2544 692E                        l2536 68A0                        l2528 683E  
                      l3088 6AEA                        l2640 73EC                        l2632 73AE  
                      l2624 7374                        l2616 733A                        l2560 71FA  
                      l2552 71CC                        l3096 6718                        l2480 5CAE  
                      l3192 664E                        l3184 6600                        l2802 794A  
                      l2810 7970                        l2730 7664                        l2722 7634  
                      l2714 75EE                        l2706 75C8                        l2394 7D28  
                      l2386 7CF4                        l2378 7CCE                        l2298 7AA4  
                      l2546 6952                        l2538 68C2                        l2650 7462  
                      l2642 73F6                        l2634 73BE                        l2626 7382  
                      l2618 734A                        l2570 7232                        l2562 720A  
                      l2554 71DA                        l3098 674E                        l2490 5CCA  
                      l2482 5CB4                        l3194 6660                        l3186 6614  
                      l2812 7974                        l2804 795A                        l2740 76B4  
                      l2732 766E                        l2724 7644                        l2716 75FE  
                      l2708 75CE                        l2396 7D3E                        l2388 7CF8  
                      l2548 6972                        l2660 74D0                        l2644 7404  
                      l2636 73D0                        l2628 738E                        l2580 725E  
                      l2572 7238                        l2564 721A                        l2556 71E8  
                      l2492 5CCE                        l2484 5CC4                        l3196 667C  
                      l3188 6628                        l2830 6348                        l2822 632A  
                      l2806 7968                        l2750 76F6                        l2742 76C0  
                      l2734 7684                        l2718 760E                        l2670 7536  
                      l2654 748C                        l2662 74D4                        l2638 73E6  
                      l2646 7416                        l2590 7296                        l2582 726E  
                      l2574 723E                        l2566 721C                        l2558 71EA  
                      l2910 646C                        l2902 63EE                        l2494 5CEE  
                      l2486 5CC6                        l3198 6698                        l2840 637C  
                      l2832 6356                        l2824 632E                        l2808 796A  
                      l2760 7758                        l2752 7706                        l2744 76CE  
                      l2736 7690                        l2728 7658                        l2816 5E4E  
                      l2680 7552                        l2672 7538                        l2664 74EE  
                      l2656 7498                        l2648 7434                        l2592 72AC  
                      l2584 727E                        l2576 724C                        l2568 7222  
                      l2920 64F0                        l2912 647A                        l2904 641E  
                      l2496 5CF0                        l2488 5CC8                        l2850 63B6  
                      l2842 6384                        l2834 635E                        l2826 633C  
                      l2770 7800                        l2762 7774                        l2754 7720  
                      l2746 76DA                        l2738 76A8                        l2690 756C  
                      l2818 5E60                        l2930 6520                        l2674 753C  
                      l2666 7504                        l2658 74A6                        l2594 72BC  
                      l2586 7280                        l2578 724E                        l2914 648C  
                      l2906 642E                        l2498 5C96                        l2860 63DC  
                      l2852 63BE                        l2844 638C                        l2836 6362  
                      l2828 6344                        l2780 7876                        l2772 780A  
                      l2764 779E                        l2756 7730                        l2748 76EA  
                      l2692 757A                        l2940 656E                        l2932 654A  
                      l2924 64F4                        l2676 754A                        l2668 751E  
                      l2596 72C4                        l2588 7286                        l2916 649A  
                      l2908 645C                        l2862 63E4                        l2854 63C0  
                      l2846 639A                        l2838 636A                        l2870 61CA  
                      l2790 78E4                        l2774 7818                        l2766 77D4  
                      l2758 774C                        l2694 757C                        l2950 659A  
                      l2934 654C                        l2926 650C                        l2678 7550  
                      l2598 72C8                        l2918 64EA                        l2856 63C6  
                      l2848 63A0                        l2880 61FE                        l2872 61D2  
                      l2784 78A0                        l2792 78E8                        l2776 782A  
                      l2768 77E2                        l2696 758C                        l2688 755E  
                      l2960 65CA                        l2936 655C                        l2858 63CC  
                      l2890 623A                        l2882 6206                        l2874 61D6  
                      l2866 61B8                        l2794 7902                        l2786 78AC  
                      l2778 7848                        l2698 759C                        l2962 65DA  
                      l2946 6586                        l2938 6560                        l2970 6B46  
                      l2892 6240                        l2884 620E                        l2876 61E4  
                      l2868 61BC                        l2796 7916                        l2788 78BA  
                      l2964 65EA                        l2956 65AE                        l2948 6590  
                      l2980 6BC4                        l2972 6B54                        l2886 621C  
                      l2894 6246                        l2878 61EC                        l2798 7930  
                      l2958 65BA                        l2990 6C18                        l2982 6BCC  
                      l2974 6B9A                        l2896 6256                        l2888 6232  
                      l2992 6C54                        l2984 6BD8                        l2976 6BB0  
                      l2968 6B34                        l2898 625E                        l2994 6C60  
                      l2986 6C0A                        l2996 6C6E                        l2988 6C0C  
                      l2998 6C8C                        STR_1 7E49                        STR_2 7EEF  
                      STR_3 7EF3                        STR_4 7EE7                        STR_5 7EF6  
                      STR_6 7EE7                        STR_7 7EF9                        STR_8 7EDD  
                      STR_9 7EC9                        u3000 7382                        u2200 5C90  
                      u3001 737E                        u2201 5C8C                        u2210 79A2  
                      u3010 73AC                        u2211 799E                        u3011 73A8  
                      u2300 7AF0                        u2220 79B4                        u3100 74A6  
                      u3020 73D0                        u2301 7AEC                        u2221 79B0  
                      u3101 74A2                        u3021 73CC                        u2310 7B08  
                      u2230 79C4                        u3110 74EE                        u3030 73E6  
                      u2311 7B02                        u2231 79C0                        u3111 74EA  
                      u3031 73E2                        u3200 7634                        u2400 7BEC  
                      u2320 7B0A                        u2240 7A04                        u3120 751E  
                      u3040 7404                        _LATD 0F8C                        u3201 7630  
                      u2401 7BE8                        u2241 7A00                        u3121 751A  
                      u3041 7400                        u3210 7644                        u2410 7C24  
                      u2330 7B32                        u2250 7A1A                        u3130 754A  
                      u3050 7424                        u3211 7640                        u2411 7C20  
                      u2331 7B2E                        u2251 7A16                        u3131 7546  
                      u3051 7420                        u3300 7902                        u3220 77BE  
                      u3140 757A                        u2500 7D3E                        u2420 7C6A  
                      u2340 7B50                        u2260 7A2C                        u3060 7434  
                      u3301 78FE                        u3141 7576                        u2501 7D3A  
                      u2421 7C66                        u2341 7B4C                        u2261 7A28  
                      u3061 7430                        u3310 7930                        u3230 7818  
                      u3150 758C                        u2510 7D54                        u2430 7CA0  
                      u2350 7B70                        u2270 7A3C                        u3070 7462  
                      u3311 792C                        u3231 7814                        u3151 7588  
                      u2511 7D50                        u2431 7C9C                        u2351 7B6C  
                      u2271 7A38                        u3071 745E                        u3400 61E4  
                      u3320 7968                        u3240 7838                        u3160 759C  
                      u2520 7D68                        u2440 7CB0                        u2360 7B7E  
                      u2280 7A76                        u3080 7478                        u3401 61E0  
                      u3321 7964                        u3241 7834                        u3225 77B4  
                      u3161 7598                        u2521 7D64                        u2441 7CAC  
                      u2361 7B7A                        u2281 7A72                        u3081 7474  
                      u3330 633C                        u3410 61FE                        u3250 7848  
                      u3170 75DC                        u2530 7D82                        u2450 7CDC  
                      u2370 7B8E                        u2290 7A84                        u3090 748C  
                      u3331 6338                        u3411 61FA                        u3251 7844  
                      u3171 75D8                        u2531 7D7E                        u2451 7CD8  
                      u2371 7B8A                        u2291 7A80                        u3091 7488  
                      u3340 6356                        u3420 621C                        u3260 7876  
                      u3180 75EE                        u2540 7DBC                        u2460 7CEC  
                      u2380 7BC0                        u3500 650C                        u2700 5F8C  
                      u3341 6352                        u3421 6218                        u3261 7872  
                      u3181 75EA                        u2541 7DB8                        u2461 7CE8  
                      u2381 7BBC                        u3501 6508                        u3350 637C  
                      u3430 6232                        u3270 788C                        u3190 75FE  
                      u2550 7DCE                        u2470 7D08                        u2390 7BCE  
                      u3510 6540                        u2710 5FB6                        u3351 6378  
                      u3431 622E                        u3271 7888                        u3191 75FA  
                      u2551 7DCA                        u2471 7D04                        u2391 7BCA  
                      u3360 639A                        u3440 6256                        u3280 78A0  
                      u2560 7DDE                        u2480 7D18                        u3520 656E  
                      u3600 6C06                        u2720 5FC6                        u3361 6396  
                      u3441 6252                        u3281 789C                        u2561 7DDA  
                      u2481 7D14                        u3521 656A                        u3601 6C02  
                      u4057 6AB8                        u2721 5FC2                        u3370 63B6  
                      u3290 78BA                        u2570 7DFE                        u2490 7D28  
                      u3530 6582                        u3610 6C50                        u2810 68F8  
                      u2730 684C                        u3450 641E                        u3371 63B2  
                      u3291 78B6                        u2571 7DFA                        u2491 7D24  
                      u3531 657E                        u3515 6536                        u3611 6C4C  
                      u2811 68F0                        u4067 6B02                        u3451 641A  
                      u2707 5F82                        u3380 63DC                        u2580 7E0E  
                      u3540 65AA                        u3620 6C6E                        u2740 6874  
                      u3700 6AE8                        u3460 645C                        u3381 63D8  
                      u2581 7E0A                        u3541 65A6                        u3621 6C6A  
                      u2741 6870                        u4077 6B20                        u3701 6AE4  
                      u3461 6458                        u2717 5FAC                        u3390 61CA  
                      u2590 7E2A                        u3550 65CA                        u3630 6C7E  
                      u2830 691E                        u2750 6892                        u2910 71E8  
                      u3470 647A                        u3710 674E                        u3391 61C6  
                      u2591 7E26                        u3551 65C6                        u3631 6C7A  
                      u2831 6916                        u2751 688A                        u2911 71E4  
                      u3471 6476                        u3711 674A                        u3560 65DA  
                      u3640 6C8C                        u2808 68D8                        u2920 71FA  
                      u3480 649A                        u3720 679A                        u3561 65D6  
                      u3641 6C88                        u2921 71F6                        u3481 6496  
                      u3721 6796                        u3650 6CC6                        u3570 6B46  
                      u2850 6940                        u2770 68B2                        u2930 720A  
                      u3490 64EA                        u3730 67CE                        u3651 6CC2  
                      u3571 6B42                        u2851 6938                        u2771 68AA  
                      u2931 7206                        u3491 64E6                        u3731 67CA  
                      u3660 6CD4                        u3580 6B54                        u2908 6988  
                      u2828 68FC                        u2940 724C                        u3740 67F4  
                      u3820 663A                        u3661 6CD0                        u3581 6B50  
                      u2941 7248                        u3741 67F0                        u3821 6636  
                      u3590 6BB0                        u2870 6964                        u2790 68D4  
                      u2950 725E                        u3750 6828                        u3830 6660  
                      u3591 6BAC                        u2871 695C                        u2791 68CC  
                      u2951 725A                        u3751 6824                        u3831 665C  
                      u2848 6922                        u2768 6896                        u2960 726E  
                      u3840 667C                        u2961 726A                        u3841 6678  
                      u2890 6984                        u3690 6AAA                        u2970 72AC  
                      u3850 6698                        u2891 697C                        u3691 6AA6  
                      u2971 72A8                        u3851 6694                        u2868 6944  
                      u2788 68B6                        u2980 72EC                        u3860 66C0  
                      u2981 72E8                        u3861 66BC                        u2990 7360  
                      u3870 66DC                        u2991 735C                        u3871 66D8  
                      u2888 6968                        u3880 6704                        u3881 6700  
                      _TMR0 0FD6                        abs@a 0007                        _dbuf 00C0  
                      _main 65FC                        _prec 003C                        fsr1h 0FE2  
                      fsr2h 0FDA                        indf1 0FE7                        indf2 0FDF  
                      fsr1l 0FE1                        fsr2l 0FD9                        btemp 004B  
                      prodh 0FF4                        prodl 0FF3                        start 7EFC  
           ___fldiv@new_exp 007F                ___param_bank 0000                       ??_abs 0009  
             ___fltol@sign1 00A8             __end_of___fladd 7E3E                       ?_main 0001  
           __end_of___fldiv 755E             __end_of___awdiv 63EE                       STR_10 7ED3  
           __end_of___awmod 6268             __end_of___flmul 7986             __end_of___flsub 5E96  
           __end_of___fltol 65FC             ___awdiv@divisor 0062                       i2l132 5C54  
                     i2l124 7186                       i2l116 6F26                       i2l135 5C6A  
                     i2l144 5F66                       i2l129 71A8                       i2l138 5C7C  
                     i2l413 6328                       i2l426 61B6                       i2l910 5E4C  
                     i2l904 6EBA                       i2l914 5D3E                       i2l940 5C4E  
                     i2l917 5D56                       i2l929 6108                       i2l866 5D8E  
                     i2l859 5D22                       i2l948 5EFC             ___awdiv@counter 0064  
                     _RCREG 0FAE                vfpfcnvrt@fmt 000C                       _SPBRG 0FAF  
                     _TRISC 0F94                       _TRISD 0F95                       _TRISE 0F96  
                     _TXREG 0FAD      regularTemperatura@temp 006C                       _flags 0040  
                     _fputc 6060                       _setup 5D90                       _width 003A  
                     _putch 5C4E                       tablat 0FF5             __end_of_rxUsart 5C56  
             ?_enviarString 0061             __end_of_txUsart 5C96                       ttemp5 004C  
                     ttemp6 004F                       ttemp7 0053                       status 0FD8  
                     wtemp8 004C             __end_of_sprintf 5D90             __initialization 5DCE  
         i2enviarString@str 0002                __end_of_main 6718                      ??_main 00BC  
             __activetblptr 0002         displayTemperatura@i 00BA                      ?_fputc 0001  
          ??i2_enviarString 0004                      _ADRESH 0FC4                      _ADRESL 0FC3  
          ___awdiv@dividend 0060                      ?_setup 0001                      ?_putch 0001  
                    i2l2200 611A                      i2l2210 614E                      i2l2202 6122  
                    i2l2140 608A                      i2l2220 618A                      i2l2212 6156  
                    i2l2204 6126                      i2l3020 5E44                      i2l2150 5D32  
                    i2l2142 60A6                      i2l2134 6060                      i2l2222 6190  
                    i2l2214 615E                      i2l2206 6134                      i2l3014 5E0C  
                    i2l2144 60D8                      i2l2136 6070                      i2l2160 6284  
                    i2l2152 6268                      i2l2216 616C                      i2l2224 6196  
                    i2l2208 613C                      i2l3016 5E18                      i2l3024 5C6A  
                    i2l2138 6080                      i2l2170 62B8                      i2l2162 6292  
                    i2l2154 626A                      i2l2226 61A6                      i2l2218 6182  
                    i2l3018 5E28                      i2l3026 5C78                      i2l3210 6EDE  
                    i2l2148 5D24                      i2l2180 62F2                      i2l2172 62C0  
                    i2l2164 629A                      i2l2156 6278                      i2l2228 61AE  
                    i2l3140 5E96                      i2l3300 713E                      i2l3220 6F06  
                    i2l3212 6EEC                      i2l2190 6318                      i2l2182 62FA  
                    i2l2174 62C8                      i2l2166 629E                      i2l2158 6280  
                    i2l2430 6CE8                      i2l3142 5E9A                      i2l3310 7180  
                    i2l3302 7160                      i2l3230 6F3A                      i2l3214 6EFA  
                    i2l3222 6F08                      i2l3136 5C52                      i2l2192 6320  
                    i2l2184 62FC                      i2l2176 62D6                      i2l2168 62A6  
                    i2l2440 6D34                      i2l2432 6D0A                      i2l3160 5D84  
                    i2l3152 5D58                      i2l3144 5EA0                      i2l3304 7166  
                    i2l3312 7186                      i2l3240 6F8A                      i2l3232 6F4C  
                    i2l3224 6F16                      i2l3216 6F02                      i2l3170 5D08  
                    i2l2186 6302                      i2l2178 62DC                      i2l2450 6DB6  
                    i2l2442 6D50                      i2l2434 6D16                      i2l3154 5D60  
                    i2l3146 5EC6                      i2l3314 718E                      i2l3306 7168  
                    i2l3250 6FE4                      i2l3234 6F5E                      i2l3242 6F98  
                    i2l3226 6F24                      i2l3218 6F04                      i2l3164 5CF4  
                    i2l2188 6308                      i2l2196 610A                      i2l2460 6E34  
                    i2l2452 6DE6                      i2l2444 6D6C                      i2l2436 6D22  
                    i2l3156 5D68                      i2l3148 5EDC                      i2l3180 5F5A  
                    i2l3172 5EFE                      i2l3308 716A                      i2l3260 7018  
                    i2l3252 6FE6                      i2l3244 6FA2                      i2l3316 71A6  
                    i2l3236 6F7A                      i2l3228 6F34                      i2l3166 5CFC  
                    i2l2198 610C                      i2l2462 6E44                      i2l2454 6E02  
                    i2l2446 6D84                      i2l2470 6E88                      i2l2438 6D26  
                    i2l3158 5D70                      i2l3174 5F02                      i2l3270 706E  
                    i2l3262 701A                      i2l3254 6FEA                      i2l3246 6FC4  
                    i2l3238 6F86                      i2l3168 5D06                      i2l2464 6E56  
                    i2l2456 6E14                      i2l2448 6D9E                      i2l3176 5F26  
                    i2l3280 70B8                      i2l3264 7036                      i2l3272 7078  
                    i2l3248 6FCE                      i2l3256 6FF0                      i2l2466 6E70  
                    i2l2458 6E24                      i2l2474 6E98                      i2l3178 5F2A  
                    i2l3290 70FE                      i2l3282 70BE                      i2l3274 707A  
                    i2l3266 7052                      i2l3258 7012                      i2l2468 6E72  
                    i2l3292 7116                      i2l3284 70C0                      i2l3276 7090  
                    i2l3268 7056                      i2l3286 70DC                      i2l3294 7120  
                    i2l3278 7096                      i2l3296 7122                      i2l3288 70F8  
                    i2l3298 7138              ??_enviarString 0063                rotina_ISR@ch 0039  
                    _OSCCON 0FD3               vfpfcnvrt@done 0010            __end_of___xxtofl 6CE8  
              vfprintf@cfmt 001C                      ___flge 63EE                   ??___fladd 0068  
                 ??___fldiv 0076                   ??___awdiv 0064                   ??___awmod 0064  
                 ??___flmul 008F                   ??___flsub 0078                   ??___fltol 00A4  
                    _buffer 0046   displayTemperatura@decimal 00B0                      _indice 003E  
                    _manual 00E0                      _memset 5CF4                      clear_0 5DEC  
                    clear_1 5DF8            ___awdiv@quotient 0066             ___awmod@divisor 0062  
 displayTemperatura@digitos 00B2                      isa$std 0001             ___awmod@counter 0064  
        _displayTemperatura 6996                      _strcmp 5E96              i2___awdiv@sign 0006  
                    fputc@c 0001   displayTemperatura@inteiro 00B8           __end_ofi2___awdiv 632A  
         __end_ofi2___awmod 61B8                __mediumconst 7E3E                      tblptrh 0FF7  
                    tblptrl 0FF6                      tblptru 0FF8                   ??_rxUsart 0001  
                    putch@c 0001         ?_displayTemperatura 00AA            __end_of_vfprintf 5E4E  
            i2___awmod@sign 0006                   ??_txUsart 0060                   ??_sprintf 0023  
                ___flge@ff1 0060                  ___flge@ff2 0064                ___xxtofl@arg 006A  
              ___xxtofl@exp 0069                ___xxtofl@val 0060                  __accesstop 0060  
   __end_of__initialization 5DFE              _lerTemperatura 5FD4               ___rparam_used 0001  
                ___fltol@f1 00A0           __end_ofi2_txUsart 5C7E        ??_displayTemperatura 00AE  
            __pcstackCOMRAM 0001                __pidataBANK0 5C50               __end_of_fputc 610A  
             __end_of_setup 5DCE               __end_of_putch 5C50                 i2txUsart@ch 0001  
                   ??_fputc 0004                     ??_setup 0063                     ??_putch 0001  
    __end_of_lerTemperatura 6060                  __pbssBANK0 00C0      displayTemperatura@temp 00AA  
                   ?___flge 0060                     ?_memset 0001              display7Seg@num 0060  
      __end_of_enviarString 5FD4                     ?_strcmp 0001                   ?___xxtofl 0060  
             _limparDisplay 5C56             ?_lerTemperatura 00A0                     __Hparam 0000  
                   __Lparam 0000                  _automatico 00E1           __end_of_configAdc 5CF4  
                   ___fladd 7986                     ___fldiv 71CC                     ___awdiv 632A  
                   ___awmod 61B8                     ___flmul 755E                     ___flsub 5E4E  
                   ___fltol 64F4                   ?_vfprintf 0018                     __pcinit 5DCE  
                   __ramtop 0600                     __ptext0 65FC                     __ptext1 5D90  
                   __ptext2 5C96                     __ptext3 5CAE                     __ptext4 5CCE  
                   __ptext5 6718                     __ptext6 5F68                     __ptext7 5C7E  
                   __ptext8 63EE                     __ptext9 5FD4                   _T0CONbits 0FD5  
            ?_limparDisplay 0001                  ??___xxtofl 0064            ___awmod@dividend 0060  
                   _rxUsart 5C52                     _txUsart 5C7E                     _sprintf 5D58  
            __pintcode_body 6EBC        end_of_initialization 5DFE        display7Seg@segmentos 006D  
                   fputc@fp 0003                     memset@c 0002                     memset@n 0004  
                   memset@p 0006               __Lmediumconst 7E3E                     int_func 6EBC  
           enviarString@str 0061           __end_of_vfpfcnvrt 6EBC                   _RCSTAbits 0FAB  
                   postdec2 0FDD                     postinc0 0FEE                     postinc1 0FE6  
                   postinc2 0FDE            vfpfcnvrt@convarg 0013                  ??_vfprintf 001C  
                   strcmp@l 0001                     strcmp@r 0002                 ___fladd@grs 006F  
             ___xxtofl@sign 0068                   _TRISAbits 0F92                   _TRISCbits 0F94  
               ___fldiv@grs 0081                 ___fldiv@rem 007A                  _rotina_ISR 0008  
                 i2___awdiv 6268                   i2___awmod 610A                 ___flmul@grs 0094  
                 _TXSTAbits 0FAC          i2___awdiv@dividend 0001               ??_configTimer 0060  
             ??_configUsart 0060               ??_display7Seg 0062                   i2_txUsart 5C68  
            __end_of___flge 64F4  __end_of_regularTemperatura 683E                 vfpfcnvrt@ap 000D  
               vfpfcnvrt@cp 0011                 vfpfcnvrt@fp 000B             ??_limparDisplay 0060  
            __end_of_memset 5D24              __end_of_strcmp 5EFE         start_initialization 5DCE  
        i2___awdiv@quotient 0007                 __end_of_abs 5D58                  ?i2___awdiv 0001  
                ?i2___awmod 0001                _enviarString 5F68                 vfprintf@fmt 0019  
                  ??___flge 0068                  ?i2_txUsart 0001                 __pdataBANK0 00E2  
       __end_of_configTimer 5CCE         __end_of_configUsart 5CAE                    ??_memset 0006  
        display7Seg@numeros 0063                  memset@dest 0001                    ??_strcmp 0004  
       __end_of_display7Seg 6996                   ___fladd@a 0064                   ___fladd@b 0060  
                 ___fldiv@a 0072                   ___fldiv@b 006E                   ___flmul@a 008B  
                 ___flmul@b 0087                 __pbssCOMRAM 003A            ??_lerTemperatura 00A4  
                 ___flsub@a 0074                   ___flsub@b 0070               __pcstackBANK0 0060  
               ?_rotina_ISR 0001                   __pintcode 0008               __pmediumconst 7E3E  
                  ?___fladd 0060                    ?___fldiv 006E                    ?___awdiv 0060  
                  ?___awmod 0060                    ?___flmul 0087                    ?___flsub 0070  
                  ?___fltol 00A0                   _configAdc 5CCE                 __smallconst 7E3E  
                  ?_rxUsart 0001                    ?_txUsart 0001                 ??i2___awdiv 0005  
               ??i2___awmod 0005                    ?_sprintf 001E                    _LATAbits 0F89  
                  _LATCbits 0F8B                    _LATDbits 0F8C                    _LATEbits 0F8D  
                  _PIE1bits 0F9D                 _configTimer 5CAE                 _configUsart 5C96  
                  i2u210_40 62B8                    i2u210_41 62B4                    i2u203_40 6070  
                  i2u211_40 62D6                    i2u203_41 606C                    i2u211_41 62D2  
                  i2u204_40 6080                    i2u212_40 62F2                    i2u204_41 607C  
                  i2u212_41 62EE                    i2u205_40 60A6                    i2u213_40 6318  
                  i2u205_41 60A2                    i2u213_41 6314                    i2u206_40 60D8  
                  i2u214_40 611A                    i2u206_41 60D4                    i2u214_41 6116  
                  i2u207_40 5D32                    i2u215_40 6134                    i2u207_41 5D2E  
                  i2u215_41 6130                    i2u208_40 6278                    i2u216_40 614E  
                  i2u400_40 7052                    i2u208_41 6274                    i2u216_41 614A  
                  i2u400_41 704E                    i2u209_40 6292                    i2u217_40 616C  
                  i2u401_40 70B8                    i2u209_41 628E                    i2u217_41 6168  
                  i2u401_41 70B4                    i2u218_40 6182                    i2u402_40 70DC  
                  i2u218_41 617E                    i2u402_41 70D8                    i2u410_47 712C  
                  i2u219_40 61A6                    i2u403_40 70F8                    i2u219_41 61A2  
                  i2u403_41 70F4                    i2u411_47 7174                    i2u260_40 6D0A  
                  i2u404_40 7160                    i2u260_41 6D06                    i2u404_41 715C  
                  i2u261_40 6D50                    i2u261_41 6D4C                    i2u262_40 6D6C  
                  i2u262_41 6D68                    i2u263_40 6DB2                    i2u263_41 6DAC  
                  i2u264_40 6DB4                    i2u408_47 6FD8                    i2u265_40 6E14  
                  i2u265_41 6E10                    _PIR1bits 0F9E                    i2u409_47 7084  
                  i2u266_40 6E24                    i2u266_41 6E20                    i2u267_40 6E34  
                  i2u267_41 6E30                    i2u268_40 6E44                    i2u380_40 5F4A  
                  i2u268_41 6E40                    i2u380_47 5F40                    i2u269_40 6E84  
                  i2u381_40 5F5A                    i2u269_41 6E80                    i2u381_41 5F56  
                  i2u390_40 6EFA                    i2u390_41 6EF6                    i2u367_40 5E44  
                  i2u391_40 6F16                    i2u367_41 5E40                    i2u391_41 6F12  
                  i2u376_40 5EC6                    i2u368_40 5C78                    i2u392_40 6F24  
                  i2u376_41 5EC2                    i2u368_41 5C74                    i2u392_41 6F20  
                  i2u377_40 5EDC                    i2u393_40 6F34                    i2u377_41 5ED8  
                  i2u393_41 6F30                    i2u378_40 5D22                    i2u394_40 6F4C  
                  i2u378_41 5D1E                    i2u394_41 6F48                    i2u379_40 5F22  
                  i2u395_40 6F5E                    i2u395_41 6F5A                    i2u379_47 5F18  
                  i2u396_40 6F7A                    i2u396_41 6F76                    i2u397_40 6FC4  
                  i2u389_40 6EEC                    i2u397_41 6FC0                    i2u389_41 6EE8  
                  i2u398_40 7012                    i2u398_41 700E                    i2u399_40 7036  
                  i2u399_41 7032        lerTemperatura@sample 00A6                 ??i2_txUsart 0001  
               _display7Seg 683E                  ?_configAdc 0001                   _vfpfcnvrt 6CE8  
                _ADCON0bits 0FC2                  _ADCON1bits 0FC1                  _ADCON2bits 0FC0  
         display7Seg@F11011 7E3F           i2___awdiv@divisor 0003           i2___awdiv@counter 0005  
                vfpfcnvrt@c 0017          i2___awmod@dividend 0001              i2_enviarString 5EFE  
                  __Hrparam 0000                  vfprintf@ap 001B                    __Lrparam 0000  
                vfprintf@fp 0018   __end_ofdisplay7Seg@F11011 7E49                  ?_vfpfcnvrt 000B  
                sprintf@fmt 001F                    ___xxtofl 6B30                _tempDesejada 00E2  
                  __ptext10 71CC                    __ptext11 6996                    __ptext20 632A  
                  __ptext12 5C56                    __ptext13 683E                    __ptext30 6060  
                  __ptext22 5EFE                    __ptext14 6B30                    __ptext31 5C4E  
                  __ptext23 5C68                    __ptext15 64F4                    __ptext32 5D24  
                  __ptext24 5E96                    __ptext16 5E4E                    __ptext33 5C52  
                  __ptext25 5D58                    __ptext17 7986                    __ptext34 5CF4  
                  __ptext26 5E0C                    __ptext18 755E                    __ptext27 6CE8  
                  __ptext19 61B8                    __ptext28 610A                    __ptext29 6268  
        _regularTemperatura 6718         ?_regularTemperatura 006C      __end_ofi2_enviarString 5F68  
                  isa$xinst 0000                    int$flags 004B                    _vfprintf 5E0C  
               ??_configAdc 0060                    main@temp 00BC        ??_regularTemperatura 0070  
         i2___awmod@divisor 0003           i2___awmod@counter 0005       __end_of_limparDisplay 5C68  
                _INTCONbits 0FF2                   txUsart@ch 0060                ??_rotina_ISR 002F  
                  intlevel2 0000                   sprintf@ap 0023             ?i2_enviarString 0002  
__end_of_displayTemperatura 6B30                 ??_vfpfcnvrt 000E          __end_of_rotina_ISR 71CC  
                  sprintf@f 0024                    sprintf@s 001E               ___fladd@signs 006C  
              ___fladd@aexp 006D                ___fladd@bexp 006E                ?_configTimer 0001  
              ?_configUsart 0001  
